
furryfinder.elf:     file format elf32-littlearm

Sections:
Idx Name          Size      VMA       LMA       File off  Algn
  0 .isr_vector   0000010c  08000000  08000000  00010000  2**0
                  CONTENTS, ALLOC, LOAD, READONLY, DATA
  1 .text         00004650  0800010c  0800010c  0001010c  2**2
                  CONTENTS, ALLOC, LOAD, READONLY, CODE
  2 .rodata       0000050c  0800475c  0800475c  0001475c  2**2
                  CONTENTS, ALLOC, LOAD, READONLY, DATA
  3 .ARM.extab    00000000  08004c68  08004c68  00020114  2**0
                  CONTENTS
  4 .ARM          00000000  08004c68  08004c68  00020114  2**0
                  CONTENTS
  5 .preinit_array 00000000  08004c68  08004c68  00020114  2**0
                  CONTENTS, ALLOC, LOAD, DATA
  6 .init_array   00000004  08004c68  08004c68  00014c68  2**2
                  CONTENTS, ALLOC, LOAD, DATA
  7 .fini_array   00000004  08004c6c  08004c6c  00014c6c  2**2
                  CONTENTS, ALLOC, LOAD, DATA
  8 .data         00000114  20000000  08004c70  00020000  2**2
                  CONTENTS, ALLOC, LOAD, DATA
  9 .bss          00000354  20000114  08004d84  00020114  2**2
                  ALLOC
 10 ._user_heap_stack 00000600  20000468  08004d84  00020468  2**0
                  ALLOC
 11 .ARM.attributes 00000029  00000000  00000000  00020114  2**0
                  CONTENTS, READONLY
 12 .comment      00000050  00000000  00000000  0002013d  2**0
                  CONTENTS, READONLY
 13 .debug_frame  00000f20  00000000  00000000  00020190  2**2
                  CONTENTS, READONLY, DEBUGGING, OCTETS

Disassembly of section .text:

0800010c <__do_global_dtors_aux>:
 800010c:	b510      	push	{r4, lr}
 800010e:	4c05      	ldr	r4, [pc, #20]	; (8000124 <__do_global_dtors_aux+0x18>)
 8000110:	7823      	ldrb	r3, [r4, #0]
 8000112:	b933      	cbnz	r3, 8000122 <__do_global_dtors_aux+0x16>
 8000114:	4b04      	ldr	r3, [pc, #16]	; (8000128 <__do_global_dtors_aux+0x1c>)
 8000116:	b113      	cbz	r3, 800011e <__do_global_dtors_aux+0x12>
 8000118:	4804      	ldr	r0, [pc, #16]	; (800012c <__do_global_dtors_aux+0x20>)
 800011a:	f3af 8000 	nop.w
 800011e:	2301      	movs	r3, #1
 8000120:	7023      	strb	r3, [r4, #0]
 8000122:	bd10      	pop	{r4, pc}
 8000124:	20000114 	.word	0x20000114
 8000128:	00000000 	.word	0x00000000
 800012c:	08004744 	.word	0x08004744

08000130 <frame_dummy>:
 8000130:	b508      	push	{r3, lr}
 8000132:	4b03      	ldr	r3, [pc, #12]	; (8000140 <frame_dummy+0x10>)
 8000134:	b11b      	cbz	r3, 800013e <frame_dummy+0xe>
 8000136:	4903      	ldr	r1, [pc, #12]	; (8000144 <frame_dummy+0x14>)
 8000138:	4803      	ldr	r0, [pc, #12]	; (8000148 <frame_dummy+0x18>)
 800013a:	f3af 8000 	nop.w
 800013e:	bd08      	pop	{r3, pc}
 8000140:	00000000 	.word	0x00000000
 8000144:	20000118 	.word	0x20000118
 8000148:	08004744 	.word	0x08004744

0800014c <strlen>:
 800014c:	4603      	mov	r3, r0
 800014e:	f813 2b01 	ldrb.w	r2, [r3], #1
 8000152:	2a00      	cmp	r2, #0
 8000154:	d1fb      	bne.n	800014e <strlen+0x2>
 8000156:	1a18      	subs	r0, r3, r0
 8000158:	3801      	subs	r0, #1
 800015a:	4770      	bx	lr

0800015c <SystemClock_Config>:
 800015c:	b510      	push	{r4, lr}
 800015e:	b094      	sub	sp, #80	; 0x50
 8000160:	2220      	movs	r2, #32
 8000162:	2100      	movs	r1, #0
 8000164:	a80c      	add	r0, sp, #48	; 0x30
 8000166:	f002 fbd1 	bl	800290c <memset>
 800016a:	2214      	movs	r2, #20
 800016c:	2100      	movs	r1, #0
 800016e:	eb0d 0002 	add.w	r0, sp, r2
 8000172:	f002 fbcb 	bl	800290c <memset>
 8000176:	2100      	movs	r1, #0
 8000178:	2210      	movs	r2, #16
 800017a:	a801      	add	r0, sp, #4
 800017c:	f002 fbc6 	bl	800290c <memset>
 8000180:	2401      	movs	r4, #1
 8000182:	2205      	movs	r2, #5
 8000184:	f44f 3380 	mov.w	r3, #65536	; 0x10000
 8000188:	a80a      	add	r0, sp, #40	; 0x28
 800018a:	e9cd 230a 	strd	r2, r3, [sp, #40]	; 0x28
 800018e:	940d      	str	r4, [sp, #52]	; 0x34
 8000190:	f001 f990 	bl	80014b4 <HAL_RCC_OscConfig>
 8000194:	4601      	mov	r1, r0
 8000196:	b108      	cbz	r0, 800019c <SystemClock_Config+0x40>
 8000198:	b672      	cpsid	i
 800019a:	e7fe      	b.n	800019a <SystemClock_Config+0x3e>
 800019c:	230f      	movs	r3, #15
 800019e:	e9cd 0007 	strd	r0, r0, [sp, #28]
 80001a2:	9009      	str	r0, [sp, #36]	; 0x24
 80001a4:	a805      	add	r0, sp, #20
 80001a6:	e9cd 3405 	strd	r3, r4, [sp, #20]
 80001aa:	f001 fb45 	bl	8001838 <HAL_RCC_ClockConfig>
 80001ae:	b108      	cbz	r0, 80001b4 <SystemClock_Config+0x58>
 80001b0:	b672      	cpsid	i
 80001b2:	e7fe      	b.n	80001b2 <SystemClock_Config+0x56>
 80001b4:	f44f 7380 	mov.w	r3, #256	; 0x100
 80001b8:	a801      	add	r0, sp, #4
 80001ba:	9401      	str	r4, [sp, #4]
 80001bc:	9302      	str	r3, [sp, #8]
 80001be:	f001 fbf7 	bl	80019b0 <HAL_RCCEx_PeriphCLKConfig>
 80001c2:	b108      	cbz	r0, 80001c8 <SystemClock_Config+0x6c>
 80001c4:	b672      	cpsid	i
 80001c6:	e7fe      	b.n	80001c6 <SystemClock_Config+0x6a>
 80001c8:	b014      	add	sp, #80	; 0x50
 80001ca:	bd10      	pop	{r4, pc}

080001cc <main>:
 80001cc:	e92d 47f0 	stmdb	sp!, {r4, r5, r6, r7, r8, r9, sl, lr}
 80001d0:	b0c2      	sub	sp, #264	; 0x108
 80001d2:	f000 fe7f 	bl	8000ed4 <HAL_Init>
 80001d6:	f7ff ffc1 	bl	800015c <SystemClock_Config>
 80001da:	4b9a      	ldr	r3, [pc, #616]	; (8000444 <main+0x278>)
 80001dc:	200c      	movs	r0, #12
 80001de:	699a      	ldr	r2, [r3, #24]
 80001e0:	f44f 5516 	mov.w	r5, #9600	; 0x2580
 80001e4:	f042 0210 	orr.w	r2, r2, #16
 80001e8:	619a      	str	r2, [r3, #24]
 80001ea:	699a      	ldr	r2, [r3, #24]
 80001ec:	4e96      	ldr	r6, [pc, #600]	; (8000448 <main+0x27c>)
 80001ee:	f002 0210 	and.w	r2, r2, #16
 80001f2:	9205      	str	r2, [sp, #20]
 80001f4:	9a05      	ldr	r2, [sp, #20]
 80001f6:	699a      	ldr	r2, [r3, #24]
 80001f8:	240c      	movs	r4, #12
 80001fa:	f042 0220 	orr.w	r2, r2, #32
 80001fe:	619a      	str	r2, [r3, #24]
 8000200:	699a      	ldr	r2, [r3, #24]
 8000202:	f002 0220 	and.w	r2, r2, #32
 8000206:	9206      	str	r2, [sp, #24]
 8000208:	9a06      	ldr	r2, [sp, #24]
 800020a:	699a      	ldr	r2, [r3, #24]
 800020c:	f042 0204 	orr.w	r2, r2, #4
 8000210:	619a      	str	r2, [r3, #24]
 8000212:	699a      	ldr	r2, [r3, #24]
 8000214:	f002 0204 	and.w	r2, r2, #4
 8000218:	9207      	str	r2, [sp, #28]
 800021a:	9a07      	ldr	r2, [sp, #28]
 800021c:	699a      	ldr	r2, [r3, #24]
 800021e:	f042 0208 	orr.w	r2, r2, #8
 8000222:	619a      	str	r2, [r3, #24]
 8000224:	699a      	ldr	r2, [r3, #24]
 8000226:	f002 0208 	and.w	r2, r2, #8
 800022a:	9208      	str	r2, [sp, #32]
 800022c:	9a08      	ldr	r2, [sp, #32]
 800022e:	695a      	ldr	r2, [r3, #20]
 8000230:	f042 0201 	orr.w	r2, r2, #1
 8000234:	615a      	str	r2, [r3, #20]
 8000236:	2200      	movs	r2, #0
 8000238:	695b      	ldr	r3, [r3, #20]
 800023a:	4611      	mov	r1, r2
 800023c:	f003 0301 	and.w	r3, r3, #1
 8000240:	9304      	str	r3, [sp, #16]
 8000242:	9b04      	ldr	r3, [sp, #16]
 8000244:	f000 fe96 	bl	8000f74 <HAL_NVIC_SetPriority>
 8000248:	200c      	movs	r0, #12
 800024a:	f000 fec5 	bl	8000fd8 <HAL_NVIC_EnableIRQ>
 800024e:	2200      	movs	r2, #0
 8000250:	200d      	movs	r0, #13
 8000252:	4611      	mov	r1, r2
 8000254:	f000 fe8e 	bl	8000f74 <HAL_NVIC_SetPriority>
 8000258:	200d      	movs	r0, #13
 800025a:	f000 febd 	bl	8000fd8 <HAL_NVIC_EnableIRQ>
 800025e:	2200      	movs	r2, #0
 8000260:	2010      	movs	r0, #16
 8000262:	4611      	mov	r1, r2
 8000264:	f000 fe86 	bl	8000f74 <HAL_NVIC_SetPriority>
 8000268:	2010      	movs	r0, #16
 800026a:	f000 feb5 	bl	8000fd8 <HAL_NVIC_EnableIRQ>
 800026e:	4b77      	ldr	r3, [pc, #476]	; (800044c <main+0x280>)
 8000270:	4630      	mov	r0, r6
 8000272:	e9c6 3500 	strd	r3, r5, [r6]
 8000276:	2300      	movs	r3, #0
 8000278:	e9c6 3302 	strd	r3, r3, [r6, #8]
 800027c:	e9c6 4305 	strd	r4, r3, [r6, #20]
 8000280:	6133      	str	r3, [r6, #16]
 8000282:	61f3      	str	r3, [r6, #28]
 8000284:	f001 ffd8 	bl	8002238 <HAL_UART_Init>
 8000288:	b108      	cbz	r0, 800028e <main+0xc2>
 800028a:	b672      	cpsid	i
 800028c:	e7fe      	b.n	800028c <main+0xc0>
 800028e:	4f70      	ldr	r7, [pc, #448]	; (8000450 <main+0x284>)
 8000290:	4b70      	ldr	r3, [pc, #448]	; (8000454 <main+0x288>)
 8000292:	e9c7 0002 	strd	r0, r0, [r7, #8]
 8000296:	e9c7 0404 	strd	r0, r4, [r7, #16]
 800029a:	e9c7 0006 	strd	r0, r0, [r7, #24]
 800029e:	4638      	mov	r0, r7
 80002a0:	e9c7 3500 	strd	r3, r5, [r7]
 80002a4:	f001 ffc8 	bl	8002238 <HAL_UART_Init>
 80002a8:	b108      	cbz	r0, 80002ae <main+0xe2>
 80002aa:	b672      	cpsid	i
 80002ac:	e7fe      	b.n	80002ac <main+0xe0>
 80002ae:	f04f 33ff 	mov.w	r3, #4294967295
 80002b2:	4c69      	ldr	r4, [pc, #420]	; (8000458 <main+0x28c>)
 80002b4:	4969      	ldr	r1, [pc, #420]	; (800045c <main+0x290>)
 80002b6:	e9cd 001c 	strd	r0, r0, [sp, #112]	; 0x70
 80002ba:	e9c4 1300 	strd	r1, r3, [r4]
 80002be:	f44f 7380 	mov.w	r3, #256	; 0x100
 80002c2:	f8ad 000c 	strh.w	r0, [sp, #12]
 80002c6:	f88d 000e 	strb.w	r0, [sp, #14]
 80002ca:	9009      	str	r0, [sp, #36]	; 0x24
 80002cc:	4620      	mov	r0, r4
 80002ce:	60a3      	str	r3, [r4, #8]
 80002d0:	f001 ff02 	bl	80020d8 <HAL_RTC_Init>
 80002d4:	b108      	cbz	r0, 80002da <main+0x10e>
 80002d6:	b672      	cpsid	i
 80002d8:	e7fe      	b.n	80002d8 <main+0x10c>
 80002da:	f88d 000c 	strb.w	r0, [sp, #12]
 80002de:	f88d 000d 	strb.w	r0, [sp, #13]
 80002e2:	f88d 000e 	strb.w	r0, [sp, #14]
 80002e6:	2201      	movs	r2, #1
 80002e8:	4620      	mov	r0, r4
 80002ea:	a903      	add	r1, sp, #12
 80002ec:	f001 fced 	bl	8001cca <HAL_RTC_SetTime>
 80002f0:	b108      	cbz	r0, 80002f6 <main+0x12a>
 80002f2:	b672      	cpsid	i
 80002f4:	e7fe      	b.n	80002f4 <main+0x128>
 80002f6:	2501      	movs	r5, #1
 80002f8:	f88d 0027 	strb.w	r0, [sp, #39]	; 0x27
 80002fc:	462a      	mov	r2, r5
 80002fe:	4620      	mov	r0, r4
 8000300:	a909      	add	r1, sp, #36	; 0x24
 8000302:	f88d 5024 	strb.w	r5, [sp, #36]	; 0x24
 8000306:	f88d 5025 	strb.w	r5, [sp, #37]	; 0x25
 800030a:	f88d 5026 	strb.w	r5, [sp, #38]	; 0x26
 800030e:	f001 fde9 	bl	8001ee4 <HAL_RTC_SetDate>
 8000312:	b108      	cbz	r0, 8000318 <main+0x14c>
 8000314:	b672      	cpsid	i
 8000316:	e7fe      	b.n	8000316 <main+0x14a>
 8000318:	f8ad 0070 	strh.w	r0, [sp, #112]	; 0x70
 800031c:	f88d 0072 	strb.w	r0, [sp, #114]	; 0x72
 8000320:	901d      	str	r0, [sp, #116]	; 0x74
 8000322:	462a      	mov	r2, r5
 8000324:	4620      	mov	r0, r4
 8000326:	a91c      	add	r1, sp, #112	; 0x70
 8000328:	f001 fe34 	bl	8001f94 <HAL_RTC_SetAlarm_IT>
 800032c:	4604      	mov	r4, r0
 800032e:	b108      	cbz	r0, 8000334 <main+0x168>
 8000330:	b672      	cpsid	i
 8000332:	e7fe      	b.n	8000332 <main+0x166>
 8000334:	46a2      	mov	sl, r4
 8000336:	4b4a      	ldr	r3, [pc, #296]	; (8000460 <main+0x294>)
 8000338:	f8ad 000c 	strh.w	r0, [sp, #12]
 800033c:	9309      	str	r3, [sp, #36]	; 0x24
 800033e:	f000 f999 	bl	8000674 <SIM800L_Reset>
 8000342:	f44f 60fa 	mov.w	r0, #2000	; 0x7d0
 8000346:	f000 fde9 	bl	8000f1c <HAL_Delay>
 800034a:	462a      	mov	r2, r5
 800034c:	4630      	mov	r0, r6
 800034e:	4945      	ldr	r1, [pc, #276]	; (8000464 <main+0x298>)
 8000350:	f002 fa92 	bl	8002878 <HAL_UART_Receive_DMA>
 8000354:	462a      	mov	r2, r5
 8000356:	4d44      	ldr	r5, [pc, #272]	; (8000468 <main+0x29c>)
 8000358:	4638      	mov	r0, r7
 800035a:	4944      	ldr	r1, [pc, #272]	; (800046c <main+0x2a0>)
 800035c:	4f44      	ldr	r7, [pc, #272]	; (8000470 <main+0x2a4>)
 800035e:	4e45      	ldr	r6, [pc, #276]	; (8000474 <main+0x2a8>)
 8000360:	f8df 8114 	ldr.w	r8, [pc, #276]	; 8000478 <main+0x2ac>
 8000364:	f002 fa88 	bl	8002878 <HAL_UART_Receive_DMA>
 8000368:	702c      	strb	r4, [r5, #0]
 800036a:	782b      	ldrb	r3, [r5, #0]
 800036c:	2b01      	cmp	r3, #1
 800036e:	d032      	beq.n	80003d6 <main+0x20a>
 8000370:	2b02      	cmp	r3, #2
 8000372:	d03b      	beq.n	80003ec <main+0x220>
 8000374:	2b00      	cmp	r3, #0
 8000376:	d1f9      	bne.n	800036c <main+0x1a0>
 8000378:	4630      	mov	r0, r6
 800037a:	a909      	add	r1, sp, #36	; 0x24
 800037c:	f000 f8d8 	bl	8000530 <ParseGPRMC>
 8000380:	2800      	cmp	r0, #0
 8000382:	d1f2      	bne.n	800036a <main+0x19e>
 8000384:	4630      	mov	r0, r6
 8000386:	f000 f89d 	bl	80004c4 <CalculateChecksum>
 800038a:	9b11      	ldr	r3, [sp, #68]	; 0x44
 800038c:	4298      	cmp	r0, r3
 800038e:	d1ec      	bne.n	800036a <main+0x19e>
 8000390:	f8df 90e8 	ldr.w	r9, [pc, #232]	; 800047c <main+0x2b0>
 8000394:	f89d 3069 	ldrb.w	r3, [sp, #105]	; 0x69
 8000398:	9a14      	ldr	r2, [sp, #80]	; 0x50
 800039a:	f89d 1048 	ldrb.w	r1, [sp, #72]	; 0x48
 800039e:	f89d 0030 	ldrb.w	r0, [sp, #48]	; 0x30
 80003a2:	f8cd 8000 	str.w	r8, [sp]
 80003a6:	f000 f899 	bl	80004dc <BuildGPSCoord>
 80003aa:	f89d 306a 	ldrb.w	r3, [sp, #106]	; 0x6a
 80003ae:	9a15      	ldr	r2, [sp, #84]	; 0x54
 80003b0:	f89d 104c 	ldrb.w	r1, [sp, #76]	; 0x4c
 80003b4:	f89d 0034 	ldrb.w	r0, [sp, #52]	; 0x34
 80003b8:	f8cd 9000 	str.w	r9, [sp]
 80003bc:	f000 f88e 	bl	80004dc <BuildGPSCoord>
 80003c0:	9b09      	ldr	r3, [sp, #36]	; 0x24
 80003c2:	4a2d      	ldr	r2, [pc, #180]	; (8000478 <main+0x2ac>)
 80003c4:	9300      	str	r3, [sp, #0]
 80003c6:	492e      	ldr	r1, [pc, #184]	; (8000480 <main+0x2b4>)
 80003c8:	464b      	mov	r3, r9
 80003ca:	a81c      	add	r0, sp, #112	; 0x70
 80003cc:	f002 faa6 	bl	800291c <siprintf>
 80003d0:	2301      	movs	r3, #1
 80003d2:	702b      	strb	r3, [r5, #0]
 80003d4:	e7c9      	b.n	800036a <main+0x19e>
 80003d6:	a81c      	add	r0, sp, #112	; 0x70
 80003d8:	f000 f9f6 	bl	80007c8 <SIM800L_WEBUpdate>
 80003dc:	4604      	mov	r4, r0
 80003de:	b118      	cbz	r0, 80003e8 <main+0x21c>
 80003e0:	2801      	cmp	r0, #1
 80003e2:	d1c2      	bne.n	800036a <main+0x19e>
 80003e4:	2300      	movs	r3, #0
 80003e6:	e7f4      	b.n	80003d2 <main+0x206>
 80003e8:	2302      	movs	r3, #2
 80003ea:	e7f2      	b.n	80003d2 <main+0x206>
 80003ec:	f1ba 0f00 	cmp.w	sl, #0
 80003f0:	d124      	bne.n	800043c <main+0x270>
 80003f2:	a803      	add	r0, sp, #12
 80003f4:	f000 f958 	bl	80006a8 <SIM800L_BatteryCheck>
 80003f8:	4604      	mov	r4, r0
 80003fa:	2800      	cmp	r0, #0
 80003fc:	d1b5      	bne.n	800036a <main+0x19e>
 80003fe:	f8bd 300c 	ldrh.w	r3, [sp, #12]
 8000402:	4639      	mov	r1, r7
 8000404:	f6a3 5248 	subw	r2, r3, #3400	; 0xd48
 8000408:	2a00      	cmp	r2, #0
 800040a:	bfbc      	itt	lt
 800040c:	f46f 6254 	mvnlt.w	r2, #3392	; 0xd40
 8000410:	189a      	addlt	r2, r3, r2
 8000412:	f3c2 02cf 	ubfx	r2, r2, #3, #16
 8000416:	9b09      	ldr	r3, [sp, #36]	; 0x24
 8000418:	a81c      	add	r0, sp, #112	; 0x70
 800041a:	f002 fa7f 	bl	800291c <siprintf>
 800041e:	a81c      	add	r0, sp, #112	; 0x70
 8000420:	f000 f9d2 	bl	80007c8 <SIM800L_WEBUpdate>
 8000424:	4604      	mov	r4, r0
 8000426:	b130      	cbz	r0, 8000436 <main+0x26a>
 8000428:	f1b0 0a01 	subs.w	sl, r0, #1
 800042c:	bf18      	it	ne
 800042e:	f04f 0a01 	movne.w	sl, #1
 8000432:	2400      	movs	r4, #0
 8000434:	e799      	b.n	800036a <main+0x19e>
 8000436:	4682      	mov	sl, r0
 8000438:	7028      	strb	r0, [r5, #0]
 800043a:	e796      	b.n	800036a <main+0x19e>
 800043c:	2c00      	cmp	r4, #0
 800043e:	d194      	bne.n	800036a <main+0x19e>
 8000440:	e7ed      	b.n	800041e <main+0x252>
 8000442:	bf00      	nop
 8000444:	40021000 	.word	0x40021000
 8000448:	20000230 	.word	0x20000230
 800044c:	40004400 	.word	0x40004400
 8000450:	20000278 	.word	0x20000278
 8000454:	40004800 	.word	0x40004800
 8000458:	2000021c 	.word	0x2000021c
 800045c:	40002800 	.word	0x40002800
 8000460:	000138d5 	.word	0x000138d5
 8000464:	20000450 	.word	0x20000450
 8000468:	200002c0 	.word	0x200002c0
 800046c:	20000452 	.word	0x20000452
 8000470:	080047b8 	.word	0x080047b8
 8000474:	20000000 	.word	0x20000000
 8000478:	20000130 	.word	0x20000130
 800047c:	2000013f 	.word	0x2000013f
 8000480:	08004768 	.word	0x08004768

08000484 <HAL_RTC_AlarmAEventCallback>:
 8000484:	b508      	push	{r3, lr}
 8000486:	f000 fd5b 	bl	8000f40 <HAL_ResumeTick>
 800048a:	f000 fa45 	bl	8000918 <SIM800L_Wakeup>
 800048e:	2201      	movs	r2, #1
 8000490:	4907      	ldr	r1, [pc, #28]	; (80004b0 <HAL_RTC_AlarmAEventCallback+0x2c>)
 8000492:	4808      	ldr	r0, [pc, #32]	; (80004b4 <HAL_RTC_AlarmAEventCallback+0x30>)
 8000494:	f002 f9f0 	bl	8002878 <HAL_UART_Receive_DMA>
 8000498:	2300      	movs	r3, #0
 800049a:	4a07      	ldr	r2, [pc, #28]	; (80004b8 <HAL_RTC_AlarmAEventCallback+0x34>)
 800049c:	4907      	ldr	r1, [pc, #28]	; (80004bc <HAL_RTC_AlarmAEventCallback+0x38>)
 800049e:	7013      	strb	r3, [r2, #0]
 80004a0:	780a      	ldrb	r2, [r1, #0]
 80004a2:	2a09      	cmp	r2, #9
 80004a4:	bf9c      	itt	ls
 80004a6:	1c53      	addls	r3, r2, #1
 80004a8:	b2db      	uxtbls	r3, r3
 80004aa:	700b      	strb	r3, [r1, #0]
 80004ac:	bd08      	pop	{r3, pc}
 80004ae:	bf00      	nop
 80004b0:	20000450 	.word	0x20000450
 80004b4:	20000230 	.word	0x20000230
 80004b8:	200002c0 	.word	0x200002c0
 80004bc:	2000014e 	.word	0x2000014e

080004c0 <Error_Handler>:
 80004c0:	b672      	cpsid	i
 80004c2:	e7fe      	b.n	80004c2 <Error_Handler+0x2>

080004c4 <CalculateChecksum>:
 80004c4:	4602      	mov	r2, r0
 80004c6:	2301      	movs	r3, #1
 80004c8:	2000      	movs	r0, #0
 80004ca:	5cd1      	ldrb	r1, [r2, r3]
 80004cc:	292a      	cmp	r1, #42	; 0x2a
 80004ce:	d100      	bne.n	80004d2 <CalculateChecksum+0xe>
 80004d0:	4770      	bx	lr
 80004d2:	3301      	adds	r3, #1
 80004d4:	4048      	eors	r0, r1
 80004d6:	b2db      	uxtb	r3, r3
 80004d8:	e7f7      	b.n	80004ca <CalculateChecksum+0x6>
	...

080004dc <BuildGPSCoord>:
 80004dc:	b410      	push	{r4}
 80004de:	4604      	mov	r4, r0
 80004e0:	f003 03fb 	and.w	r3, r3, #251	; 0xfb
 80004e4:	2b53      	cmp	r3, #83	; 0x53
 80004e6:	bf04      	itt	eq
 80004e8:	4264      	negeq	r4, r4
 80004ea:	b2e4      	uxtbeq	r4, r4
 80004ec:	9801      	ldr	r0, [sp, #4]
 80004ee:	460b      	mov	r3, r1
 80004f0:	9201      	str	r2, [sp, #4]
 80004f2:	4902      	ldr	r1, [pc, #8]	; (80004fc <BuildGPSCoord+0x20>)
 80004f4:	4622      	mov	r2, r4
 80004f6:	bc10      	pop	{r4}
 80004f8:	f002 ba10 	b.w	800291c <siprintf>
 80004fc:	080047fb 	.word	0x080047fb

08000500 <strtok_new>:
 8000500:	b538      	push	{r3, r4, r5, lr}
 8000502:	4d0a      	ldr	r5, [pc, #40]	; (800052c <strtok_new+0x2c>)
 8000504:	b100      	cbz	r0, 8000508 <strtok_new+0x8>
 8000506:	6028      	str	r0, [r5, #0]
 8000508:	682c      	ldr	r4, [r5, #0]
 800050a:	b13c      	cbz	r4, 800051c <strtok_new+0x1c>
 800050c:	4620      	mov	r0, r4
 800050e:	f002 fa9c 	bl	8002a4a <strpbrk>
 8000512:	b128      	cbz	r0, 8000520 <strtok_new+0x20>
 8000514:	2300      	movs	r3, #0
 8000516:	f800 3b01 	strb.w	r3, [r0], #1
 800051a:	6028      	str	r0, [r5, #0]
 800051c:	4620      	mov	r0, r4
 800051e:	bd38      	pop	{r3, r4, r5, pc}
 8000520:	7823      	ldrb	r3, [r4, #0]
 8000522:	2b00      	cmp	r3, #0
 8000524:	d1f9      	bne.n	800051a <strtok_new+0x1a>
 8000526:	461c      	mov	r4, r3
 8000528:	e7f8      	b.n	800051c <strtok_new+0x1c>
 800052a:	bf00      	nop
 800052c:	200002c4 	.word	0x200002c4

08000530 <ParseGPRMC>:
 8000530:	e92d 41f0 	stmdb	sp!, {r4, r5, r6, r7, r8, lr}
 8000534:	4b47      	ldr	r3, [pc, #284]	; (8000654 <ParseGPRMC+0x124>)
 8000536:	b098      	sub	sp, #96	; 0x60
 8000538:	881a      	ldrh	r2, [r3, #0]
 800053a:	789b      	ldrb	r3, [r3, #2]
 800053c:	f8ad 2008 	strh.w	r2, [sp, #8]
 8000540:	460c      	mov	r4, r1
 8000542:	2252      	movs	r2, #82	; 0x52
 8000544:	4601      	mov	r1, r0
 8000546:	a803      	add	r0, sp, #12
 8000548:	f88d 300a 	strb.w	r3, [sp, #10]
 800054c:	f002 f9d0 	bl	80028f0 <memcpy>
 8000550:	2300      	movs	r3, #0
 8000552:	f103 0260 	add.w	r2, r3, #96	; 0x60
 8000556:	446a      	add	r2, sp
 8000558:	f812 2c54 	ldrb.w	r2, [r2, #-84]
 800055c:	3301      	adds	r3, #1
 800055e:	2a2c      	cmp	r2, #44	; 0x2c
 8000560:	b2db      	uxtb	r3, r3
 8000562:	d1f6      	bne.n	8000552 <ParseGPRMC+0x22>
 8000564:	f103 0260 	add.w	r2, r3, #96	; 0x60
 8000568:	446a      	add	r2, sp
 800056a:	f812 2c54 	ldrb.w	r2, [r2, #-84]
 800056e:	3301      	adds	r3, #1
 8000570:	2a2c      	cmp	r2, #44	; 0x2c
 8000572:	b2db      	uxtb	r3, r3
 8000574:	d1f6      	bne.n	8000564 <ParseGPRMC+0x34>
 8000576:	3360      	adds	r3, #96	; 0x60
 8000578:	446b      	add	r3, sp
 800057a:	f813 3c54 	ldrb.w	r3, [r3, #-84]
 800057e:	2b41      	cmp	r3, #65	; 0x41
 8000580:	d166      	bne.n	8000650 <ParseGPRMC+0x120>
 8000582:	a902      	add	r1, sp, #8
 8000584:	a803      	add	r0, sp, #12
 8000586:	f7ff ffbb 	bl	8000500 <strtok_new>
 800058a:	2000      	movs	r0, #0
 800058c:	a902      	add	r1, sp, #8
 800058e:	f7ff ffb7 	bl	8000500 <strtok_new>
 8000592:	2600      	movs	r6, #0
 8000594:	f8df 80c0 	ldr.w	r8, [pc, #192]	; 8000658 <ParseGPRMC+0x128>
 8000598:	4d30      	ldr	r5, [pc, #192]	; (800065c <ParseGPRMC+0x12c>)
 800059a:	4f31      	ldr	r7, [pc, #196]	; (8000660 <ParseGPRMC+0x130>)
 800059c:	b2f3      	uxtb	r3, r6
 800059e:	b910      	cbnz	r0, 80005a6 <ParseGPRMC+0x76>
 80005a0:	b018      	add	sp, #96	; 0x60
 80005a2:	e8bd 81f0 	ldmia.w	sp!, {r4, r5, r6, r7, r8, pc}
 80005a6:	2b0c      	cmp	r3, #12
 80005a8:	d811      	bhi.n	80005ce <ParseGPRMC+0x9e>
 80005aa:	e8df f003 	tbb	[pc, r3]
 80005ae:	1607      	.short	0x1607
 80005b0:	2f26231a 	.word	0x2f26231a
 80005b4:	443b3832 	.word	0x443b3832
 80005b8:	4a47      	.short	0x4a47
 80005ba:	4d          	.byte	0x4d
 80005bb:	00          	.byte	0x00
 80005bc:	f104 0334 	add.w	r3, r4, #52	; 0x34
 80005c0:	4928      	ldr	r1, [pc, #160]	; (8000664 <ParseGPRMC+0x134>)
 80005c2:	9300      	str	r3, [sp, #0]
 80005c4:	1d22      	adds	r2, r4, #4
 80005c6:	f104 0308 	add.w	r3, r4, #8
 80005ca:	f002 f9c7 	bl	800295c <siscanf>
 80005ce:	2000      	movs	r0, #0
 80005d0:	a902      	add	r1, sp, #8
 80005d2:	f7ff ff95 	bl	8000500 <strtok_new>
 80005d6:	3601      	adds	r6, #1
 80005d8:	e7e0      	b.n	800059c <ParseGPRMC+0x6c>
 80005da:	f104 0244 	add.w	r2, r4, #68	; 0x44
 80005de:	4629      	mov	r1, r5
 80005e0:	e01a      	b.n	8000618 <ParseGPRMC+0xe8>
 80005e2:	f104 032c 	add.w	r3, r4, #44	; 0x2c
 80005e6:	9300      	str	r3, [sp, #0]
 80005e8:	491f      	ldr	r1, [pc, #124]	; (8000668 <ParseGPRMC+0x138>)
 80005ea:	f104 0324 	add.w	r3, r4, #36	; 0x24
 80005ee:	f104 020c 	add.w	r2, r4, #12
 80005f2:	e7ea      	b.n	80005ca <ParseGPRMC+0x9a>
 80005f4:	f104 0245 	add.w	r2, r4, #69	; 0x45
 80005f8:	e7f1      	b.n	80005de <ParseGPRMC+0xae>
 80005fa:	f104 0330 	add.w	r3, r4, #48	; 0x30
 80005fe:	9300      	str	r3, [sp, #0]
 8000600:	491a      	ldr	r1, [pc, #104]	; (800066c <ParseGPRMC+0x13c>)
 8000602:	f104 0328 	add.w	r3, r4, #40	; 0x28
 8000606:	f104 0210 	add.w	r2, r4, #16
 800060a:	e7de      	b.n	80005ca <ParseGPRMC+0x9a>
 800060c:	f104 0246 	add.w	r2, r4, #70	; 0x46
 8000610:	e7e5      	b.n	80005de <ParseGPRMC+0xae>
 8000612:	f104 0238 	add.w	r2, r4, #56	; 0x38
 8000616:	4639      	mov	r1, r7
 8000618:	f002 f9a0 	bl	800295c <siscanf>
 800061c:	e7d7      	b.n	80005ce <ParseGPRMC+0x9e>
 800061e:	f104 023c 	add.w	r2, r4, #60	; 0x3c
 8000622:	e7f8      	b.n	8000616 <ParseGPRMC+0xe6>
 8000624:	f104 031c 	add.w	r3, r4, #28
 8000628:	9300      	str	r3, [sp, #0]
 800062a:	4911      	ldr	r1, [pc, #68]	; (8000670 <ParseGPRMC+0x140>)
 800062c:	f104 0318 	add.w	r3, r4, #24
 8000630:	f104 0214 	add.w	r2, r4, #20
 8000634:	e7c9      	b.n	80005ca <ParseGPRMC+0x9a>
 8000636:	f104 0240 	add.w	r2, r4, #64	; 0x40
 800063a:	e7ec      	b.n	8000616 <ParseGPRMC+0xe6>
 800063c:	f104 0247 	add.w	r2, r4, #71	; 0x47
 8000640:	e7cd      	b.n	80005de <ParseGPRMC+0xae>
 8000642:	f104 0248 	add.w	r2, r4, #72	; 0x48
 8000646:	e7ca      	b.n	80005de <ParseGPRMC+0xae>
 8000648:	4641      	mov	r1, r8
 800064a:	f104 0220 	add.w	r2, r4, #32
 800064e:	e7e3      	b.n	8000618 <ParseGPRMC+0xe8>
 8000650:	2001      	movs	r0, #1
 8000652:	e7a5      	b.n	80005a0 <ParseGPRMC+0x70>
 8000654:	08004836 	.word	0x08004836
 8000658:	08004832 	.word	0x08004832
 800065c:	0800480f 	.word	0x0800480f
 8000660:	0800480c 	.word	0x0800480c
 8000664:	08004806 	.word	0x08004806
 8000668:	08004812 	.word	0x08004812
 800066c:	0800481d 	.word	0x0800481d
 8000670:	08004828 	.word	0x08004828

08000674 <SIM800L_Reset>:
 8000674:	b5f8      	push	{r3, r4, r5, r6, r7, lr}
 8000676:	2400      	movs	r4, #0
 8000678:	4e09      	ldr	r6, [pc, #36]	; (80006a0 <SIM800L_Reset+0x2c>)
 800067a:	4f0a      	ldr	r7, [pc, #40]	; (80006a4 <SIM800L_Reset+0x30>)
 800067c:	f856 5b04 	ldr.w	r5, [r6], #4
 8000680:	3401      	adds	r4, #1
 8000682:	4628      	mov	r0, r5
 8000684:	f7ff fd62 	bl	800014c <strlen>
 8000688:	4629      	mov	r1, r5
 800068a:	b282      	uxth	r2, r0
 800068c:	4638      	mov	r0, r7
 800068e:	f001 fe03 	bl	8002298 <HAL_UART_Transmit_DMA>
 8000692:	f44f 707a 	mov.w	r0, #1000	; 0x3e8
 8000696:	f000 fc41 	bl	8000f1c <HAL_Delay>
 800069a:	2c03      	cmp	r4, #3
 800069c:	d1ee      	bne.n	800067c <SIM800L_Reset+0x8>
 800069e:	bdf8      	pop	{r3, r4, r5, r6, r7, pc}
 80006a0:	20000094 	.word	0x20000094
 80006a4:	20000278 	.word	0x20000278

080006a8 <SIM800L_BatteryCheck>:
 80006a8:	e92d 41f0 	stmdb	sp!, {r4, r5, r6, r7, r8, lr}
 80006ac:	4c3c      	ldr	r4, [pc, #240]	; (80007a0 <SIM800L_BatteryCheck+0xf8>)
 80006ae:	4607      	mov	r7, r0
 80006b0:	7823      	ldrb	r3, [r4, #0]
 80006b2:	4e3c      	ldr	r6, [pc, #240]	; (80007a4 <SIM800L_BatteryCheck+0xfc>)
 80006b4:	b15b      	cbz	r3, 80006ce <SIM800L_BatteryCheck+0x26>
 80006b6:	2500      	movs	r5, #0
 80006b8:	f44f 707a 	mov.w	r0, #1000	; 0x3e8
 80006bc:	f000 fc2e 	bl	8000f1c <HAL_Delay>
 80006c0:	2208      	movs	r2, #8
 80006c2:	4939      	ldr	r1, [pc, #228]	; (80007a8 <SIM800L_BatteryCheck+0x100>)
 80006c4:	4839      	ldr	r0, [pc, #228]	; (80007ac <SIM800L_BatteryCheck+0x104>)
 80006c6:	7035      	strb	r5, [r6, #0]
 80006c8:	f001 fde6 	bl	8002298 <HAL_UART_Transmit_DMA>
 80006cc:	7025      	strb	r5, [r4, #0]
 80006ce:	7833      	ldrb	r3, [r6, #0]
 80006d0:	2b00      	cmp	r3, #0
 80006d2:	d061      	beq.n	8000798 <SIM800L_BatteryCheck+0xf0>
 80006d4:	4d36      	ldr	r5, [pc, #216]	; (80007b0 <SIM800L_BatteryCheck+0x108>)
 80006d6:	f895 8000 	ldrb.w	r8, [r5]
 80006da:	f1b8 0f00 	cmp.w	r8, #0
 80006de:	d125      	bne.n	800072c <SIM800L_BatteryCheck+0x84>
 80006e0:	4934      	ldr	r1, [pc, #208]	; (80007b4 <SIM800L_BatteryCheck+0x10c>)
 80006e2:	4835      	ldr	r0, [pc, #212]	; (80007b8 <SIM800L_BatteryCheck+0x110>)
 80006e4:	f002 f9e0 	bl	8002aa8 <strtok>
 80006e8:	4601      	mov	r1, r0
 80006ea:	b9b0      	cbnz	r0, 800071a <SIM800L_BatteryCheck+0x72>
 80006ec:	2002      	movs	r0, #2
 80006ee:	2200      	movs	r2, #0
 80006f0:	1e83      	subs	r3, r0, #2
 80006f2:	2b01      	cmp	r3, #1
 80006f4:	7032      	strb	r2, [r6, #0]
 80006f6:	4b31      	ldr	r3, [pc, #196]	; (80007bc <SIM800L_BatteryCheck+0x114>)
 80006f8:	d947      	bls.n	800078a <SIM800L_BatteryCheck+0xe2>
 80006fa:	2805      	cmp	r0, #5
 80006fc:	d04a      	beq.n	8000794 <SIM800L_BatteryCheck+0xec>
 80006fe:	4a2f      	ldr	r2, [pc, #188]	; (80007bc <SIM800L_BatteryCheck+0x114>)
 8000700:	7813      	ldrb	r3, [r2, #0]
 8000702:	2b03      	cmp	r3, #3
 8000704:	d04a      	beq.n	800079c <SIM800L_BatteryCheck+0xf4>
 8000706:	2801      	cmp	r0, #1
 8000708:	d805      	bhi.n	8000716 <SIM800L_BatteryCheck+0x6e>
 800070a:	2300      	movs	r3, #0
 800070c:	7013      	strb	r3, [r2, #0]
 800070e:	2201      	movs	r2, #1
 8000710:	7022      	strb	r2, [r4, #0]
 8000712:	4a27      	ldr	r2, [pc, #156]	; (80007b0 <SIM800L_BatteryCheck+0x108>)
 8000714:	7013      	strb	r3, [r2, #0]
 8000716:	e8bd 81f0 	ldmia.w	sp!, {r4, r5, r6, r7, r8, pc}
 800071a:	4829      	ldr	r0, [pc, #164]	; (80007c0 <SIM800L_BatteryCheck+0x118>)
 800071c:	f002 f98d 	bl	8002a3a <strcpy>
 8000720:	2301      	movs	r3, #1
 8000722:	2005      	movs	r0, #5
 8000724:	f8a7 8000 	strh.w	r8, [r7]
 8000728:	702b      	strb	r3, [r5, #0]
 800072a:	e7e0      	b.n	80006ee <SIM800L_BatteryCheck+0x46>
 800072c:	4925      	ldr	r1, [pc, #148]	; (80007c4 <SIM800L_BatteryCheck+0x11c>)
 800072e:	4822      	ldr	r0, [pc, #136]	; (80007b8 <SIM800L_BatteryCheck+0x110>)
 8000730:	f002 f9a3 	bl	8002a7a <strstr>
 8000734:	2800      	cmp	r0, #0
 8000736:	d0d9      	beq.n	80006ec <SIM800L_BatteryCheck+0x44>
 8000738:	2300      	movs	r3, #0
 800073a:	4921      	ldr	r1, [pc, #132]	; (80007c0 <SIM800L_BatteryCheck+0x118>)
 800073c:	5cca      	ldrb	r2, [r1, r3]
 800073e:	3301      	adds	r3, #1
 8000740:	2a2c      	cmp	r2, #44	; 0x2c
 8000742:	b2db      	uxtb	r3, r3
 8000744:	d1fa      	bne.n	800073c <SIM800L_BatteryCheck+0x94>
 8000746:	5cca      	ldrb	r2, [r1, r3]
 8000748:	3301      	adds	r3, #1
 800074a:	2a2c      	cmp	r2, #44	; 0x2c
 800074c:	b2db      	uxtb	r3, r3
 800074e:	d1fa      	bne.n	8000746 <SIM800L_BatteryCheck+0x9e>
 8000750:	5cca      	ldrb	r2, [r1, r3]
 8000752:	4419      	add	r1, r3
 8000754:	3a30      	subs	r2, #48	; 0x30
 8000756:	ebc2 1042 	rsb	r0, r2, r2, lsl #5
 800075a:	eb02 0080 	add.w	r0, r2, r0, lsl #2
 800075e:	78ca      	ldrb	r2, [r1, #3]
 8000760:	784b      	ldrb	r3, [r1, #1]
 8000762:	3a30      	subs	r2, #48	; 0x30
 8000764:	eb02 02c0 	add.w	r2, r2, r0, lsl #3
 8000768:	2000      	movs	r0, #0
 800076a:	3b30      	subs	r3, #48	; 0x30
 800076c:	eb03 0383 	add.w	r3, r3, r3, lsl #2
 8000770:	eb03 0383 	add.w	r3, r3, r3, lsl #2
 8000774:	eb02 0283 	add.w	r2, r2, r3, lsl #2
 8000778:	788b      	ldrb	r3, [r1, #2]
 800077a:	7028      	strb	r0, [r5, #0]
 800077c:	3b30      	subs	r3, #48	; 0x30
 800077e:	eb03 0383 	add.w	r3, r3, r3, lsl #2
 8000782:	eb02 0343 	add.w	r3, r2, r3, lsl #1
 8000786:	803b      	strh	r3, [r7, #0]
 8000788:	e7b1      	b.n	80006ee <SIM800L_BatteryCheck+0x46>
 800078a:	702a      	strb	r2, [r5, #0]
 800078c:	2201      	movs	r2, #1
 800078e:	7022      	strb	r2, [r4, #0]
 8000790:	781a      	ldrb	r2, [r3, #0]
 8000792:	3201      	adds	r2, #1
 8000794:	701a      	strb	r2, [r3, #0]
 8000796:	e7b2      	b.n	80006fe <SIM800L_BatteryCheck+0x56>
 8000798:	2007      	movs	r0, #7
 800079a:	e7b0      	b.n	80006fe <SIM800L_BatteryCheck+0x56>
 800079c:	2001      	movs	r0, #1
 800079e:	e7b4      	b.n	800070a <SIM800L_BatteryCheck+0x62>
 80007a0:	200000a0 	.word	0x200000a0
 80007a4:	2000044f 	.word	0x2000044f
 80007a8:	080049bc 	.word	0x080049bc
 80007ac:	20000278 	.word	0x20000278
 80007b0:	200002d6 	.word	0x200002d6
 80007b4:	08004839 	.word	0x08004839
 80007b8:	20000341 	.word	0x20000341
 80007bc:	200002d5 	.word	0x200002d5
 80007c0:	200002c8 	.word	0x200002c8
 80007c4:	08004840 	.word	0x08004840

080007c8 <SIM800L_WEBUpdate>:
 80007c8:	e92d 43f8 	stmdb	sp!, {r3, r4, r5, r6, r7, r8, r9, lr}
 80007cc:	4f47      	ldr	r7, [pc, #284]	; (80008ec <SIM800L_WEBUpdate+0x124>)
 80007ce:	4604      	mov	r4, r0
 80007d0:	783b      	ldrb	r3, [r7, #0]
 80007d2:	b183      	cbz	r3, 80007f6 <SIM800L_WEBUpdate+0x2e>
 80007d4:	4b46      	ldr	r3, [pc, #280]	; (80008f0 <SIM800L_WEBUpdate+0x128>)
 80007d6:	781b      	ldrb	r3, [r3, #0]
 80007d8:	2b0a      	cmp	r3, #10
 80007da:	bf1e      	ittt	ne
 80007dc:	4a45      	ldrne	r2, [pc, #276]	; (80008f4 <SIM800L_WEBUpdate+0x12c>)
 80007de:	f852 4023 	ldrne.w	r4, [r2, r3, lsl #2]
 80007e2:	4620      	movne	r0, r4
 80007e4:	f7ff fcb2 	bl	800014c <strlen>
 80007e8:	4621      	mov	r1, r4
 80007ea:	b282      	uxth	r2, r0
 80007ec:	4842      	ldr	r0, [pc, #264]	; (80008f8 <SIM800L_WEBUpdate+0x130>)
 80007ee:	f001 fd53 	bl	8002298 <HAL_UART_Transmit_DMA>
 80007f2:	2300      	movs	r3, #0
 80007f4:	703b      	strb	r3, [r7, #0]
 80007f6:	f8df 9104 	ldr.w	r9, [pc, #260]	; 80008fc <SIM800L_WEBUpdate+0x134>
 80007fa:	4d41      	ldr	r5, [pc, #260]	; (8000900 <SIM800L_WEBUpdate+0x138>)
 80007fc:	f899 3000 	ldrb.w	r3, [r9]
 8000800:	4e40      	ldr	r6, [pc, #256]	; (8000904 <SIM800L_WEBUpdate+0x13c>)
 8000802:	f8df 8104 	ldr.w	r8, [pc, #260]	; 8000908 <SIM800L_WEBUpdate+0x140>
 8000806:	2b00      	cmp	r3, #0
 8000808:	d045      	beq.n	8000896 <SIM800L_WEBUpdate+0xce>
 800080a:	4b39      	ldr	r3, [pc, #228]	; (80008f0 <SIM800L_WEBUpdate+0x128>)
 800080c:	781c      	ldrb	r4, [r3, #0]
 800080e:	2c03      	cmp	r4, #3
 8000810:	d00c      	beq.n	800082c <SIM800L_WEBUpdate+0x64>
 8000812:	2c0b      	cmp	r4, #11
 8000814:	d029      	beq.n	800086a <SIM800L_WEBUpdate+0xa2>
 8000816:	493d      	ldr	r1, [pc, #244]	; (800090c <SIM800L_WEBUpdate+0x144>)
 8000818:	483d      	ldr	r0, [pc, #244]	; (8000910 <SIM800L_WEBUpdate+0x148>)
 800081a:	f002 f92e 	bl	8002a7a <strstr>
 800081e:	2800      	cmp	r0, #0
 8000820:	d037      	beq.n	8000892 <SIM800L_WEBUpdate+0xca>
 8000822:	2c0c      	cmp	r4, #12
 8000824:	bf14      	ite	ne
 8000826:	2405      	movne	r4, #5
 8000828:	2400      	moveq	r4, #0
 800082a:	e005      	b.n	8000838 <SIM800L_WEBUpdate+0x70>
 800082c:	4b38      	ldr	r3, [pc, #224]	; (8000910 <SIM800L_WEBUpdate+0x148>)
 800082e:	781b      	ldrb	r3, [r3, #0]
 8000830:	2b00      	cmp	r3, #0
 8000832:	bf0c      	ite	eq
 8000834:	2402      	moveq	r4, #2
 8000836:	2405      	movne	r4, #5
 8000838:	2201      	movs	r2, #1
 800083a:	2300      	movs	r3, #0
 800083c:	1ea1      	subs	r1, r4, #2
 800083e:	4291      	cmp	r1, r2
 8000840:	7032      	strb	r2, [r6, #0]
 8000842:	f889 3000 	strb.w	r3, [r9]
 8000846:	d929      	bls.n	800089c <SIM800L_WEBUpdate+0xd4>
 8000848:	782b      	ldrb	r3, [r5, #0]
 800084a:	b943      	cbnz	r3, 800085e <SIM800L_WEBUpdate+0x96>
 800084c:	7832      	ldrb	r2, [r6, #0]
 800084e:	b132      	cbz	r2, 800085e <SIM800L_WEBUpdate+0x96>
 8000850:	7033      	strb	r3, [r6, #0]
 8000852:	2301      	movs	r3, #1
 8000854:	4a26      	ldr	r2, [pc, #152]	; (80008f0 <SIM800L_WEBUpdate+0x128>)
 8000856:	703b      	strb	r3, [r7, #0]
 8000858:	7813      	ldrb	r3, [r2, #0]
 800085a:	3301      	adds	r3, #1
 800085c:	7013      	strb	r3, [r2, #0]
 800085e:	2c05      	cmp	r4, #5
 8000860:	bf04      	itt	eq
 8000862:	2300      	moveq	r3, #0
 8000864:	f888 3000 	strbeq.w	r3, [r8]
 8000868:	e023      	b.n	80008b2 <SIM800L_WEBUpdate+0xea>
 800086a:	782b      	ldrb	r3, [r5, #0]
 800086c:	b943      	cbnz	r3, 8000880 <SIM800L_WEBUpdate+0xb8>
 800086e:	4927      	ldr	r1, [pc, #156]	; (800090c <SIM800L_WEBUpdate+0x144>)
 8000870:	4827      	ldr	r0, [pc, #156]	; (8000910 <SIM800L_WEBUpdate+0x148>)
 8000872:	f002 f902 	bl	8002a7a <strstr>
 8000876:	b150      	cbz	r0, 800088e <SIM800L_WEBUpdate+0xc6>
 8000878:	2301      	movs	r3, #1
 800087a:	2405      	movs	r4, #5
 800087c:	702b      	strb	r3, [r5, #0]
 800087e:	e7db      	b.n	8000838 <SIM800L_WEBUpdate+0x70>
 8000880:	4924      	ldr	r1, [pc, #144]	; (8000914 <SIM800L_WEBUpdate+0x14c>)
 8000882:	4823      	ldr	r0, [pc, #140]	; (8000910 <SIM800L_WEBUpdate+0x148>)
 8000884:	f002 f8f9 	bl	8002a7a <strstr>
 8000888:	b108      	cbz	r0, 800088e <SIM800L_WEBUpdate+0xc6>
 800088a:	2300      	movs	r3, #0
 800088c:	e7f5      	b.n	800087a <SIM800L_WEBUpdate+0xb2>
 800088e:	2403      	movs	r4, #3
 8000890:	e7d2      	b.n	8000838 <SIM800L_WEBUpdate+0x70>
 8000892:	2402      	movs	r4, #2
 8000894:	e7d0      	b.n	8000838 <SIM800L_WEBUpdate+0x70>
 8000896:	2407      	movs	r4, #7
 8000898:	7033      	strb	r3, [r6, #0]
 800089a:	e7d5      	b.n	8000848 <SIM800L_WEBUpdate+0x80>
 800089c:	7033      	strb	r3, [r6, #0]
 800089e:	702b      	strb	r3, [r5, #0]
 80008a0:	f898 3000 	ldrb.w	r3, [r8]
 80008a4:	20fa      	movs	r0, #250	; 0xfa
 80008a6:	3301      	adds	r3, #1
 80008a8:	703a      	strb	r2, [r7, #0]
 80008aa:	f888 3000 	strb.w	r3, [r8]
 80008ae:	f000 fb35 	bl	8000f1c <HAL_Delay>
 80008b2:	f898 3000 	ldrb.w	r3, [r8]
 80008b6:	2b03      	cmp	r3, #3
 80008b8:	d106      	bne.n	80008c8 <SIM800L_WEBUpdate+0x100>
 80008ba:	2200      	movs	r2, #0
 80008bc:	4b0c      	ldr	r3, [pc, #48]	; (80008f0 <SIM800L_WEBUpdate+0x128>)
 80008be:	701a      	strb	r2, [r3, #0]
 80008c0:	f7ff fed8 	bl	8000674 <SIM800L_Reset>
 80008c4:	2401      	movs	r4, #1
 80008c6:	e006      	b.n	80008d6 <SIM800L_WEBUpdate+0x10e>
 80008c8:	2c01      	cmp	r4, #1
 80008ca:	d80b      	bhi.n	80008e4 <SIM800L_WEBUpdate+0x11c>
 80008cc:	f04f 0400 	mov.w	r4, #0
 80008d0:	4b07      	ldr	r3, [pc, #28]	; (80008f0 <SIM800L_WEBUpdate+0x128>)
 80008d2:	701c      	strb	r4, [r3, #0]
 80008d4:	d0f4      	beq.n	80008c0 <SIM800L_WEBUpdate+0xf8>
 80008d6:	2300      	movs	r3, #0
 80008d8:	2201      	movs	r2, #1
 80008da:	f888 3000 	strb.w	r3, [r8]
 80008de:	7033      	strb	r3, [r6, #0]
 80008e0:	703a      	strb	r2, [r7, #0]
 80008e2:	702b      	strb	r3, [r5, #0]
 80008e4:	4620      	mov	r0, r4
 80008e6:	e8bd 83f8 	ldmia.w	sp!, {r3, r4, r5, r6, r7, r8, r9, pc}
 80008ea:	bf00      	nop
 80008ec:	200000a1 	.word	0x200000a1
 80008f0:	200002d3 	.word	0x200002d3
 80008f4:	20000054 	.word	0x20000054
 80008f8:	20000278 	.word	0x20000278
 80008fc:	2000044f 	.word	0x2000044f
 8000900:	200002d7 	.word	0x200002d7
 8000904:	200002d2 	.word	0x200002d2
 8000908:	200002d4 	.word	0x200002d4
 800090c:	08004840 	.word	0x08004840
 8000910:	20000341 	.word	0x20000341
 8000914:	08004843 	.word	0x08004843

08000918 <SIM800L_Wakeup>:
 8000918:	b570      	push	{r4, r5, r6, lr}
 800091a:	4d0f      	ldr	r5, [pc, #60]	; (8000958 <SIM800L_Wakeup+0x40>)
 800091c:	4c0f      	ldr	r4, [pc, #60]	; (800095c <SIM800L_Wakeup+0x44>)
 800091e:	686e      	ldr	r6, [r5, #4]
 8000920:	4630      	mov	r0, r6
 8000922:	f7ff fc13 	bl	800014c <strlen>
 8000926:	4631      	mov	r1, r6
 8000928:	b282      	uxth	r2, r0
 800092a:	4620      	mov	r0, r4
 800092c:	f001 fcb4 	bl	8002298 <HAL_UART_Transmit_DMA>
 8000930:	f44f 70fa 	mov.w	r0, #500	; 0x1f4
 8000934:	f000 faf2 	bl	8000f1c <HAL_Delay>
 8000938:	68ad      	ldr	r5, [r5, #8]
 800093a:	4628      	mov	r0, r5
 800093c:	f7ff fc06 	bl	800014c <strlen>
 8000940:	4629      	mov	r1, r5
 8000942:	b282      	uxth	r2, r0
 8000944:	4620      	mov	r0, r4
 8000946:	f001 fca7 	bl	8002298 <HAL_UART_Transmit_DMA>
 800094a:	e8bd 4070 	ldmia.w	sp!, {r4, r5, r6, lr}
 800094e:	f44f 70fa 	mov.w	r0, #500	; 0x1f4
 8000952:	f000 bae3 	b.w	8000f1c <HAL_Delay>
 8000956:	bf00      	nop
 8000958:	20000088 	.word	0x20000088
 800095c:	20000278 	.word	0x20000278

08000960 <HAL_MspInit>:
 8000960:	4b0e      	ldr	r3, [pc, #56]	; (800099c <HAL_MspInit+0x3c>)
 8000962:	b082      	sub	sp, #8
 8000964:	699a      	ldr	r2, [r3, #24]
 8000966:	f042 0201 	orr.w	r2, r2, #1
 800096a:	619a      	str	r2, [r3, #24]
 800096c:	699a      	ldr	r2, [r3, #24]
 800096e:	f002 0201 	and.w	r2, r2, #1
 8000972:	9200      	str	r2, [sp, #0]
 8000974:	9a00      	ldr	r2, [sp, #0]
 8000976:	69da      	ldr	r2, [r3, #28]
 8000978:	f042 5280 	orr.w	r2, r2, #268435456	; 0x10000000
 800097c:	61da      	str	r2, [r3, #28]
 800097e:	69db      	ldr	r3, [r3, #28]
 8000980:	4a07      	ldr	r2, [pc, #28]	; (80009a0 <HAL_MspInit+0x40>)
 8000982:	f003 5380 	and.w	r3, r3, #268435456	; 0x10000000
 8000986:	9301      	str	r3, [sp, #4]
 8000988:	9b01      	ldr	r3, [sp, #4]
 800098a:	6853      	ldr	r3, [r2, #4]
 800098c:	f023 63e0 	bic.w	r3, r3, #117440512	; 0x7000000
 8000990:	f043 7300 	orr.w	r3, r3, #33554432	; 0x2000000
 8000994:	6053      	str	r3, [r2, #4]
 8000996:	b002      	add	sp, #8
 8000998:	4770      	bx	lr
 800099a:	bf00      	nop
 800099c:	40021000 	.word	0x40021000
 80009a0:	40010000 	.word	0x40010000

080009a4 <HAL_RTC_MspInit>:
 80009a4:	b507      	push	{r0, r1, r2, lr}
 80009a6:	4b11      	ldr	r3, [pc, #68]	; (80009ec <HAL_RTC_MspInit+0x48>)
 80009a8:	6802      	ldr	r2, [r0, #0]
 80009aa:	429a      	cmp	r2, r3
 80009ac:	d11a      	bne.n	80009e4 <HAL_RTC_MspInit+0x40>
 80009ae:	f000 fd7b 	bl	80014a8 <HAL_PWR_EnableBkUpAccess>
 80009b2:	4b0f      	ldr	r3, [pc, #60]	; (80009f0 <HAL_RTC_MspInit+0x4c>)
 80009b4:	2029      	movs	r0, #41	; 0x29
 80009b6:	69da      	ldr	r2, [r3, #28]
 80009b8:	f042 6200 	orr.w	r2, r2, #134217728	; 0x8000000
 80009bc:	61da      	str	r2, [r3, #28]
 80009be:	2201      	movs	r2, #1
 80009c0:	69db      	ldr	r3, [r3, #28]
 80009c2:	f003 6300 	and.w	r3, r3, #134217728	; 0x8000000
 80009c6:	9301      	str	r3, [sp, #4]
 80009c8:	9b01      	ldr	r3, [sp, #4]
 80009ca:	4b0a      	ldr	r3, [pc, #40]	; (80009f4 <HAL_RTC_MspInit+0x50>)
 80009cc:	f8c3 243c 	str.w	r2, [r3, #1084]	; 0x43c
 80009d0:	2200      	movs	r2, #0
 80009d2:	4611      	mov	r1, r2
 80009d4:	f000 face 	bl	8000f74 <HAL_NVIC_SetPriority>
 80009d8:	2029      	movs	r0, #41	; 0x29
 80009da:	b003      	add	sp, #12
 80009dc:	f85d eb04 	ldr.w	lr, [sp], #4
 80009e0:	f000 bafa 	b.w	8000fd8 <HAL_NVIC_EnableIRQ>
 80009e4:	b003      	add	sp, #12
 80009e6:	f85d fb04 	ldr.w	pc, [sp], #4
 80009ea:	bf00      	nop
 80009ec:	40002800 	.word	0x40002800
 80009f0:	40021000 	.word	0x40021000
 80009f4:	42420000 	.word	0x42420000

080009f8 <HAL_UART_MspInit>:
 80009f8:	b5f0      	push	{r4, r5, r6, r7, lr}
 80009fa:	2710      	movs	r7, #16
 80009fc:	4605      	mov	r5, r0
 80009fe:	b089      	sub	sp, #36	; 0x24
 8000a00:	463a      	mov	r2, r7
 8000a02:	2100      	movs	r1, #0
 8000a04:	eb0d 0007 	add.w	r0, sp, r7
 8000a08:	f001 ff80 	bl	800290c <memset>
 8000a0c:	682b      	ldr	r3, [r5, #0]
 8000a0e:	4a51      	ldr	r2, [pc, #324]	; (8000b54 <HAL_UART_MspInit+0x15c>)
 8000a10:	4293      	cmp	r3, r2
 8000a12:	d146      	bne.n	8000aa2 <HAL_UART_MspInit+0xaa>
 8000a14:	4b50      	ldr	r3, [pc, #320]	; (8000b58 <HAL_UART_MspInit+0x160>)
 8000a16:	2004      	movs	r0, #4
 8000a18:	69da      	ldr	r2, [r3, #28]
 8000a1a:	eb0d 0107 	add.w	r1, sp, r7
 8000a1e:	f442 3200 	orr.w	r2, r2, #131072	; 0x20000
 8000a22:	61da      	str	r2, [r3, #28]
 8000a24:	69da      	ldr	r2, [r3, #28]
 8000a26:	2600      	movs	r6, #0
 8000a28:	f402 3200 	and.w	r2, r2, #131072	; 0x20000
 8000a2c:	9200      	str	r2, [sp, #0]
 8000a2e:	9a00      	ldr	r2, [sp, #0]
 8000a30:	699a      	ldr	r2, [r3, #24]
 8000a32:	4c4a      	ldr	r4, [pc, #296]	; (8000b5c <HAL_UART_MspInit+0x164>)
 8000a34:	f042 0204 	orr.w	r2, r2, #4
 8000a38:	619a      	str	r2, [r3, #24]
 8000a3a:	699b      	ldr	r3, [r3, #24]
 8000a3c:	f003 0304 	and.w	r3, r3, #4
 8000a40:	9301      	str	r3, [sp, #4]
 8000a42:	9b01      	ldr	r3, [sp, #4]
 8000a44:	2302      	movs	r3, #2
 8000a46:	e9cd 0304 	strd	r0, r3, [sp, #16]
 8000a4a:	2303      	movs	r3, #3
 8000a4c:	4844      	ldr	r0, [pc, #272]	; (8000b60 <HAL_UART_MspInit+0x168>)
 8000a4e:	9307      	str	r3, [sp, #28]
 8000a50:	f000 fc50 	bl	80012f4 <HAL_GPIO_Init>
 8000a54:	2308      	movs	r3, #8
 8000a56:	4842      	ldr	r0, [pc, #264]	; (8000b60 <HAL_UART_MspInit+0x168>)
 8000a58:	eb0d 0107 	add.w	r1, sp, r7
 8000a5c:	e9cd 3604 	strd	r3, r6, [sp, #16]
 8000a60:	9606      	str	r6, [sp, #24]
 8000a62:	f000 fc47 	bl	80012f4 <HAL_GPIO_Init>
 8000a66:	4b3f      	ldr	r3, [pc, #252]	; (8000b64 <HAL_UART_MspInit+0x16c>)
 8000a68:	4620      	mov	r0, r4
 8000a6a:	e9c4 3600 	strd	r3, r6, [r4]
 8000a6e:	2380      	movs	r3, #128	; 0x80
 8000a70:	e9c4 3603 	strd	r3, r6, [r4, #12]
 8000a74:	f44f 5300 	mov.w	r3, #8192	; 0x2000
 8000a78:	e9c4 6605 	strd	r6, r6, [r4, #20]
 8000a7c:	60a6      	str	r6, [r4, #8]
 8000a7e:	61e3      	str	r3, [r4, #28]
 8000a80:	f000 facc 	bl	800101c <HAL_DMA_Init>
 8000a84:	b108      	cbz	r0, 8000a8a <HAL_UART_MspInit+0x92>
 8000a86:	f7ff fd1b 	bl	80004c0 <Error_Handler>
 8000a8a:	2200      	movs	r2, #0
 8000a8c:	2026      	movs	r0, #38	; 0x26
 8000a8e:	4611      	mov	r1, r2
 8000a90:	63ec      	str	r4, [r5, #60]	; 0x3c
 8000a92:	6265      	str	r5, [r4, #36]	; 0x24
 8000a94:	f000 fa6e 	bl	8000f74 <HAL_NVIC_SetPriority>
 8000a98:	2026      	movs	r0, #38	; 0x26
 8000a9a:	f000 fa9d 	bl	8000fd8 <HAL_NVIC_EnableIRQ>
 8000a9e:	b009      	add	sp, #36	; 0x24
 8000aa0:	bdf0      	pop	{r4, r5, r6, r7, pc}
 8000aa2:	4a31      	ldr	r2, [pc, #196]	; (8000b68 <HAL_UART_MspInit+0x170>)
 8000aa4:	4293      	cmp	r3, r2
 8000aa6:	d1fa      	bne.n	8000a9e <HAL_UART_MspInit+0xa6>
 8000aa8:	4b2b      	ldr	r3, [pc, #172]	; (8000b58 <HAL_UART_MspInit+0x160>)
 8000aaa:	4830      	ldr	r0, [pc, #192]	; (8000b6c <HAL_UART_MspInit+0x174>)
 8000aac:	69da      	ldr	r2, [r3, #28]
 8000aae:	2600      	movs	r6, #0
 8000ab0:	f442 2280 	orr.w	r2, r2, #262144	; 0x40000
 8000ab4:	61da      	str	r2, [r3, #28]
 8000ab6:	69da      	ldr	r2, [r3, #28]
 8000ab8:	4c2d      	ldr	r4, [pc, #180]	; (8000b70 <HAL_UART_MspInit+0x178>)
 8000aba:	f402 2280 	and.w	r2, r2, #262144	; 0x40000
 8000abe:	9202      	str	r2, [sp, #8]
 8000ac0:	9a02      	ldr	r2, [sp, #8]
 8000ac2:	6999      	ldr	r1, [r3, #24]
 8000ac4:	f041 0108 	orr.w	r1, r1, #8
 8000ac8:	6199      	str	r1, [r3, #24]
 8000aca:	699b      	ldr	r3, [r3, #24]
 8000acc:	f44f 6180 	mov.w	r1, #1024	; 0x400
 8000ad0:	f003 0308 	and.w	r3, r3, #8
 8000ad4:	9303      	str	r3, [sp, #12]
 8000ad6:	9b03      	ldr	r3, [sp, #12]
 8000ad8:	2302      	movs	r3, #2
 8000ada:	e9cd 1304 	strd	r1, r3, [sp, #16]
 8000ade:	2303      	movs	r3, #3
 8000ae0:	a904      	add	r1, sp, #16
 8000ae2:	9307      	str	r3, [sp, #28]
 8000ae4:	f000 fc06 	bl	80012f4 <HAL_GPIO_Init>
 8000ae8:	f44f 6300 	mov.w	r3, #2048	; 0x800
 8000aec:	481f      	ldr	r0, [pc, #124]	; (8000b6c <HAL_UART_MspInit+0x174>)
 8000aee:	a904      	add	r1, sp, #16
 8000af0:	e9cd 3604 	strd	r3, r6, [sp, #16]
 8000af4:	9606      	str	r6, [sp, #24]
 8000af6:	f000 fbfd 	bl	80012f4 <HAL_GPIO_Init>
 8000afa:	4b1e      	ldr	r3, [pc, #120]	; (8000b74 <HAL_UART_MspInit+0x17c>)
 8000afc:	4620      	mov	r0, r4
 8000afe:	e9c4 3700 	strd	r3, r7, [r4]
 8000b02:	2380      	movs	r3, #128	; 0x80
 8000b04:	e9c4 6605 	strd	r6, r6, [r4, #20]
 8000b08:	e9c4 3603 	strd	r3, r6, [r4, #12]
 8000b0c:	60a6      	str	r6, [r4, #8]
 8000b0e:	61e6      	str	r6, [r4, #28]
 8000b10:	f000 fa84 	bl	800101c <HAL_DMA_Init>
 8000b14:	b108      	cbz	r0, 8000b1a <HAL_UART_MspInit+0x122>
 8000b16:	f7ff fcd3 	bl	80004c0 <Error_Handler>
 8000b1a:	2300      	movs	r3, #0
 8000b1c:	4a16      	ldr	r2, [pc, #88]	; (8000b78 <HAL_UART_MspInit+0x180>)
 8000b1e:	63ac      	str	r4, [r5, #56]	; 0x38
 8000b20:	6265      	str	r5, [r4, #36]	; 0x24
 8000b22:	4c16      	ldr	r4, [pc, #88]	; (8000b7c <HAL_UART_MspInit+0x184>)
 8000b24:	e9c4 2300 	strd	r2, r3, [r4]
 8000b28:	2280      	movs	r2, #128	; 0x80
 8000b2a:	4620      	mov	r0, r4
 8000b2c:	e9c4 2303 	strd	r2, r3, [r4, #12]
 8000b30:	e9c4 3305 	strd	r3, r3, [r4, #20]
 8000b34:	60a3      	str	r3, [r4, #8]
 8000b36:	61e3      	str	r3, [r4, #28]
 8000b38:	f000 fa70 	bl	800101c <HAL_DMA_Init>
 8000b3c:	b108      	cbz	r0, 8000b42 <HAL_UART_MspInit+0x14a>
 8000b3e:	f7ff fcbf 	bl	80004c0 <Error_Handler>
 8000b42:	2200      	movs	r2, #0
 8000b44:	2027      	movs	r0, #39	; 0x27
 8000b46:	4611      	mov	r1, r2
 8000b48:	63ec      	str	r4, [r5, #60]	; 0x3c
 8000b4a:	6265      	str	r5, [r4, #36]	; 0x24
 8000b4c:	f000 fa12 	bl	8000f74 <HAL_NVIC_SetPriority>
 8000b50:	2027      	movs	r0, #39	; 0x27
 8000b52:	e7a2      	b.n	8000a9a <HAL_UART_MspInit+0xa2>
 8000b54:	40004400 	.word	0x40004400
 8000b58:	40021000 	.word	0x40021000
 8000b5c:	20000150 	.word	0x20000150
 8000b60:	40010800 	.word	0x40010800
 8000b64:	4002006c 	.word	0x4002006c
 8000b68:	40004800 	.word	0x40004800
 8000b6c:	40010c00 	.word	0x40010c00
 8000b70:	200001d8 	.word	0x200001d8
 8000b74:	4002001c 	.word	0x4002001c
 8000b78:	40020030 	.word	0x40020030
 8000b7c:	20000194 	.word	0x20000194

08000b80 <NMI_Handler>:
 8000b80:	e7fe      	b.n	8000b80 <NMI_Handler>

08000b82 <HardFault_Handler>:
 8000b82:	e7fe      	b.n	8000b82 <HardFault_Handler>

08000b84 <MemManage_Handler>:
 8000b84:	e7fe      	b.n	8000b84 <MemManage_Handler>

08000b86 <BusFault_Handler>:
 8000b86:	e7fe      	b.n	8000b86 <BusFault_Handler>

08000b88 <UsageFault_Handler>:
 8000b88:	e7fe      	b.n	8000b88 <UsageFault_Handler>

08000b8a <SVC_Handler>:
 8000b8a:	4770      	bx	lr

08000b8c <DebugMon_Handler>:
 8000b8c:	4770      	bx	lr

08000b8e <PendSV_Handler>:
 8000b8e:	4770      	bx	lr

08000b90 <SysTick_Handler>:
 8000b90:	f000 b9b2 	b.w	8000ef8 <HAL_IncTick>

08000b94 <DMA1_Channel2_IRQHandler>:
 8000b94:	4801      	ldr	r0, [pc, #4]	; (8000b9c <DMA1_Channel2_IRQHandler+0x8>)
 8000b96:	f000 bb19 	b.w	80011cc <HAL_DMA_IRQHandler>
 8000b9a:	bf00      	nop
 8000b9c:	200001d8 	.word	0x200001d8

08000ba0 <DMA1_Channel3_IRQHandler>:
 8000ba0:	4801      	ldr	r0, [pc, #4]	; (8000ba8 <DMA1_Channel3_IRQHandler+0x8>)
 8000ba2:	f000 bb13 	b.w	80011cc <HAL_DMA_IRQHandler>
 8000ba6:	bf00      	nop
 8000ba8:	20000194 	.word	0x20000194

08000bac <DMA1_Channel6_IRQHandler>:
 8000bac:	4801      	ldr	r0, [pc, #4]	; (8000bb4 <DMA1_Channel6_IRQHandler+0x8>)
 8000bae:	f000 bb0d 	b.w	80011cc <HAL_DMA_IRQHandler>
 8000bb2:	bf00      	nop
 8000bb4:	20000150 	.word	0x20000150

08000bb8 <USART2_IRQHandler>:
 8000bb8:	4801      	ldr	r0, [pc, #4]	; (8000bc0 <USART2_IRQHandler+0x8>)
 8000bba:	f001 bcbf 	b.w	800253c <HAL_UART_IRQHandler>
 8000bbe:	bf00      	nop
 8000bc0:	20000230 	.word	0x20000230

08000bc4 <USART3_IRQHandler>:
 8000bc4:	4801      	ldr	r0, [pc, #4]	; (8000bcc <USART3_IRQHandler+0x8>)
 8000bc6:	f001 bcb9 	b.w	800253c <HAL_UART_IRQHandler>
 8000bca:	bf00      	nop
 8000bcc:	20000278 	.word	0x20000278

08000bd0 <RTC_Alarm_IRQHandler>:
 8000bd0:	4801      	ldr	r0, [pc, #4]	; (8000bd8 <RTC_Alarm_IRQHandler+0x8>)
 8000bd2:	f001 ba4b 	b.w	800206c <HAL_RTC_AlarmIRQHandler>
 8000bd6:	bf00      	nop
 8000bd8:	2000021c 	.word	0x2000021c

08000bdc <_getpid>:
 8000bdc:	2001      	movs	r0, #1
 8000bde:	4770      	bx	lr

08000be0 <_kill>:
 8000be0:	b508      	push	{r3, lr}
 8000be2:	f001 fe5b 	bl	800289c <__errno>
 8000be6:	2316      	movs	r3, #22
 8000be8:	6003      	str	r3, [r0, #0]
 8000bea:	f04f 30ff 	mov.w	r0, #4294967295
 8000bee:	bd08      	pop	{r3, pc}

08000bf0 <_exit>:
 8000bf0:	b508      	push	{r3, lr}
 8000bf2:	f001 fe53 	bl	800289c <__errno>
 8000bf6:	2316      	movs	r3, #22
 8000bf8:	6003      	str	r3, [r0, #0]
 8000bfa:	e7fe      	b.n	8000bfa <_exit+0xa>

08000bfc <_read>:
 8000bfc:	b570      	push	{r4, r5, r6, lr}
 8000bfe:	460d      	mov	r5, r1
 8000c00:	4614      	mov	r4, r2
 8000c02:	460e      	mov	r6, r1
 8000c04:	1b73      	subs	r3, r6, r5
 8000c06:	429c      	cmp	r4, r3
 8000c08:	dc01      	bgt.n	8000c0e <_read+0x12>
 8000c0a:	4620      	mov	r0, r4
 8000c0c:	bd70      	pop	{r4, r5, r6, pc}
 8000c0e:	f3af 8000 	nop.w
 8000c12:	f806 0b01 	strb.w	r0, [r6], #1
 8000c16:	e7f5      	b.n	8000c04 <_read+0x8>

08000c18 <_write>:
 8000c18:	b570      	push	{r4, r5, r6, lr}
 8000c1a:	460d      	mov	r5, r1
 8000c1c:	4614      	mov	r4, r2
 8000c1e:	460e      	mov	r6, r1
 8000c20:	1b73      	subs	r3, r6, r5
 8000c22:	429c      	cmp	r4, r3
 8000c24:	dc01      	bgt.n	8000c2a <_write+0x12>
 8000c26:	4620      	mov	r0, r4
 8000c28:	bd70      	pop	{r4, r5, r6, pc}
 8000c2a:	f816 0b01 	ldrb.w	r0, [r6], #1
 8000c2e:	f3af 8000 	nop.w
 8000c32:	e7f5      	b.n	8000c20 <_write+0x8>

08000c34 <_close>:
 8000c34:	f04f 30ff 	mov.w	r0, #4294967295
 8000c38:	4770      	bx	lr

08000c3a <_fstat>:
 8000c3a:	f44f 5300 	mov.w	r3, #8192	; 0x2000
 8000c3e:	2000      	movs	r0, #0
 8000c40:	604b      	str	r3, [r1, #4]
 8000c42:	4770      	bx	lr

08000c44 <_isatty>:
 8000c44:	2001      	movs	r0, #1
 8000c46:	4770      	bx	lr

08000c48 <_lseek>:
 8000c48:	2000      	movs	r0, #0
 8000c4a:	4770      	bx	lr

08000c4c <_sbrk>:
 8000c4c:	4a0b      	ldr	r2, [pc, #44]	; (8000c7c <_sbrk+0x30>)
 8000c4e:	4603      	mov	r3, r0
 8000c50:	6811      	ldr	r1, [r2, #0]
 8000c52:	b510      	push	{r4, lr}
 8000c54:	b909      	cbnz	r1, 8000c5a <_sbrk+0xe>
 8000c56:	490a      	ldr	r1, [pc, #40]	; (8000c80 <_sbrk+0x34>)
 8000c58:	6011      	str	r1, [r2, #0]
 8000c5a:	6810      	ldr	r0, [r2, #0]
 8000c5c:	4909      	ldr	r1, [pc, #36]	; (8000c84 <_sbrk+0x38>)
 8000c5e:	4c0a      	ldr	r4, [pc, #40]	; (8000c88 <_sbrk+0x3c>)
 8000c60:	4403      	add	r3, r0
 8000c62:	1b09      	subs	r1, r1, r4
 8000c64:	428b      	cmp	r3, r1
 8000c66:	d906      	bls.n	8000c76 <_sbrk+0x2a>
 8000c68:	f001 fe18 	bl	800289c <__errno>
 8000c6c:	230c      	movs	r3, #12
 8000c6e:	6003      	str	r3, [r0, #0]
 8000c70:	f04f 30ff 	mov.w	r0, #4294967295
 8000c74:	bd10      	pop	{r4, pc}
 8000c76:	6013      	str	r3, [r2, #0]
 8000c78:	e7fc      	b.n	8000c74 <_sbrk+0x28>
 8000c7a:	bf00      	nop
 8000c7c:	200002d8 	.word	0x200002d8
 8000c80:	20000468 	.word	0x20000468
 8000c84:	20005000 	.word	0x20005000
 8000c88:	00000400 	.word	0x00000400

08000c8c <SystemInit>:
 8000c8c:	4770      	bx	lr
	...

08000c90 <GPS_RX>:
 8000c90:	b5f0      	push	{r4, r5, r6, r7, lr}
 8000c92:	4b29      	ldr	r3, [pc, #164]	; (8000d38 <GPS_RX+0xa8>)
 8000c94:	4929      	ldr	r1, [pc, #164]	; (8000d3c <GPS_RX+0xac>)
 8000c96:	781c      	ldrb	r4, [r3, #0]
 8000c98:	780b      	ldrb	r3, [r1, #0]
 8000c9a:	2c24      	cmp	r4, #36	; 0x24
 8000c9c:	d016      	beq.n	8000ccc <GPS_RX+0x3c>
 8000c9e:	b90b      	cbnz	r3, 8000ca4 <GPS_RX+0x14>
 8000ca0:	2001      	movs	r0, #1
 8000ca2:	e012      	b.n	8000cca <GPS_RX+0x3a>
 8000ca4:	2c0d      	cmp	r4, #13
 8000ca6:	d111      	bne.n	8000ccc <GPS_RX+0x3c>
 8000ca8:	2200      	movs	r2, #0
 8000caa:	4610      	mov	r0, r2
 8000cac:	4d24      	ldr	r5, [pc, #144]	; (8000d40 <GPS_RX+0xb0>)
 8000cae:	4e25      	ldr	r6, [pc, #148]	; (8000d44 <GPS_RX+0xb4>)
 8000cb0:	54ea      	strb	r2, [r5, r3]
 8000cb2:	b2d4      	uxtb	r4, r2
 8000cb4:	5d2f      	ldrb	r7, [r5, r4]
 8000cb6:	3201      	adds	r2, #1
 8000cb8:	5537      	strb	r7, [r6, r4]
 8000cba:	5528      	strb	r0, [r5, r4]
 8000cbc:	b2d4      	uxtb	r4, r2
 8000cbe:	429c      	cmp	r4, r3
 8000cc0:	d9f7      	bls.n	8000cb2 <GPS_RX+0x22>
 8000cc2:	4b21      	ldr	r3, [pc, #132]	; (8000d48 <GPS_RX+0xb8>)
 8000cc4:	7008      	strb	r0, [r1, #0]
 8000cc6:	7018      	strb	r0, [r3, #0]
 8000cc8:	2000      	movs	r0, #0
 8000cca:	bdf0      	pop	{r4, r5, r6, r7, pc}
 8000ccc:	4a1c      	ldr	r2, [pc, #112]	; (8000d40 <GPS_RX+0xb0>)
 8000cce:	54d4      	strb	r4, [r2, r3]
 8000cd0:	7814      	ldrb	r4, [r2, #0]
 8000cd2:	3301      	adds	r3, #1
 8000cd4:	b2db      	uxtb	r3, r3
 8000cd6:	2c24      	cmp	r4, #36	; 0x24
 8000cd8:	700b      	strb	r3, [r1, #0]
 8000cda:	d101      	bne.n	8000ce0 <GPS_RX+0x50>
 8000cdc:	2b01      	cmp	r3, #1
 8000cde:	d01d      	beq.n	8000d1c <GPS_RX+0x8c>
 8000ce0:	7855      	ldrb	r5, [r2, #1]
 8000ce2:	7804      	ldrb	r4, [r0, #0]
 8000ce4:	42a5      	cmp	r5, r4
 8000ce6:	d101      	bne.n	8000cec <GPS_RX+0x5c>
 8000ce8:	2b02      	cmp	r3, #2
 8000cea:	d017      	beq.n	8000d1c <GPS_RX+0x8c>
 8000cec:	7895      	ldrb	r5, [r2, #2]
 8000cee:	7844      	ldrb	r4, [r0, #1]
 8000cf0:	42a5      	cmp	r5, r4
 8000cf2:	d101      	bne.n	8000cf8 <GPS_RX+0x68>
 8000cf4:	2b03      	cmp	r3, #3
 8000cf6:	d011      	beq.n	8000d1c <GPS_RX+0x8c>
 8000cf8:	78d5      	ldrb	r5, [r2, #3]
 8000cfa:	7884      	ldrb	r4, [r0, #2]
 8000cfc:	42a5      	cmp	r5, r4
 8000cfe:	d101      	bne.n	8000d04 <GPS_RX+0x74>
 8000d00:	2b04      	cmp	r3, #4
 8000d02:	d00b      	beq.n	8000d1c <GPS_RX+0x8c>
 8000d04:	7915      	ldrb	r5, [r2, #4]
 8000d06:	78c4      	ldrb	r4, [r0, #3]
 8000d08:	42a5      	cmp	r5, r4
 8000d0a:	d101      	bne.n	8000d10 <GPS_RX+0x80>
 8000d0c:	2b05      	cmp	r3, #5
 8000d0e:	d005      	beq.n	8000d1c <GPS_RX+0x8c>
 8000d10:	7954      	ldrb	r4, [r2, #5]
 8000d12:	7902      	ldrb	r2, [r0, #4]
 8000d14:	4294      	cmp	r4, r2
 8000d16:	d105      	bne.n	8000d24 <GPS_RX+0x94>
 8000d18:	2b06      	cmp	r3, #6
 8000d1a:	d1c1      	bne.n	8000ca0 <GPS_RX+0x10>
 8000d1c:	480a      	ldr	r0, [pc, #40]	; (8000d48 <GPS_RX+0xb8>)
 8000d1e:	7802      	ldrb	r2, [r0, #0]
 8000d20:	3201      	adds	r2, #1
 8000d22:	7002      	strb	r2, [r0, #0]
 8000d24:	2b06      	cmp	r3, #6
 8000d26:	d1bb      	bne.n	8000ca0 <GPS_RX+0x10>
 8000d28:	4b07      	ldr	r3, [pc, #28]	; (8000d48 <GPS_RX+0xb8>)
 8000d2a:	781a      	ldrb	r2, [r3, #0]
 8000d2c:	2a05      	cmp	r2, #5
 8000d2e:	bf9e      	ittt	ls
 8000d30:	2200      	movls	r2, #0
 8000d32:	700a      	strbls	r2, [r1, #0]
 8000d34:	701a      	strbls	r2, [r3, #0]
 8000d36:	e7b3      	b.n	8000ca0 <GPS_RX+0x10>
 8000d38:	20000450 	.word	0x20000450
 8000d3c:	200003fb 	.word	0x200003fb
 8000d40:	200003a7 	.word	0x200003a7
 8000d44:	200003fc 	.word	0x200003fc
 8000d48:	200003a5 	.word	0x200003a5

08000d4c <SIM_RX>:
 8000d4c:	b5f0      	push	{r4, r5, r6, r7, lr}
 8000d4e:	491b      	ldr	r1, [pc, #108]	; (8000dbc <SIM_RX+0x70>)
 8000d50:	780b      	ldrb	r3, [r1, #0]
 8000d52:	2b41      	cmp	r3, #65	; 0x41
 8000d54:	d10a      	bne.n	8000d6c <SIM_RX+0x20>
 8000d56:	784b      	ldrb	r3, [r1, #1]
 8000d58:	2b54      	cmp	r3, #84	; 0x54
 8000d5a:	d004      	beq.n	8000d66 <SIM_RX+0x1a>
 8000d5c:	2b41      	cmp	r3, #65	; 0x41
 8000d5e:	d105      	bne.n	8000d6c <SIM_RX+0x20>
 8000d60:	788b      	ldrb	r3, [r1, #2]
 8000d62:	2b54      	cmp	r3, #84	; 0x54
 8000d64:	d102      	bne.n	8000d6c <SIM_RX+0x20>
 8000d66:	2201      	movs	r2, #1
 8000d68:	4b15      	ldr	r3, [pc, #84]	; (8000dc0 <SIM_RX+0x74>)
 8000d6a:	701a      	strb	r2, [r3, #0]
 8000d6c:	4c15      	ldr	r4, [pc, #84]	; (8000dc4 <SIM_RX+0x78>)
 8000d6e:	4b16      	ldr	r3, [pc, #88]	; (8000dc8 <SIM_RX+0x7c>)
 8000d70:	7822      	ldrb	r2, [r4, #0]
 8000d72:	781b      	ldrb	r3, [r3, #0]
 8000d74:	b922      	cbnz	r2, 8000d80 <SIM_RX+0x34>
 8000d76:	2b0a      	cmp	r3, #10
 8000d78:	d001      	beq.n	8000d7e <SIM_RX+0x32>
 8000d7a:	2b0d      	cmp	r3, #13
 8000d7c:	d11a      	bne.n	8000db4 <SIM_RX+0x68>
 8000d7e:	bdf0      	pop	{r4, r5, r6, r7, pc}
 8000d80:	2b0d      	cmp	r3, #13
 8000d82:	d117      	bne.n	8000db4 <SIM_RX+0x68>
 8000d84:	2300      	movs	r3, #0
 8000d86:	461d      	mov	r5, r3
 8000d88:	4f0d      	ldr	r7, [pc, #52]	; (8000dc0 <SIM_RX+0x74>)
 8000d8a:	f8df c040 	ldr.w	ip, [pc, #64]	; 8000dcc <SIM_RX+0x80>
 8000d8e:	7838      	ldrb	r0, [r7, #0]
 8000d90:	548b      	strb	r3, [r1, r2]
 8000d92:	b2de      	uxtb	r6, r3
 8000d94:	b918      	cbnz	r0, 8000d9e <SIM_RX+0x52>
 8000d96:	f811 e006 	ldrb.w	lr, [r1, r6]
 8000d9a:	f80c e006 	strb.w	lr, [ip, r6]
 8000d9e:	3301      	adds	r3, #1
 8000da0:	558d      	strb	r5, [r1, r6]
 8000da2:	b2de      	uxtb	r6, r3
 8000da4:	42b2      	cmp	r2, r6
 8000da6:	d2f4      	bcs.n	8000d92 <SIM_RX+0x46>
 8000da8:	7025      	strb	r5, [r4, #0]
 8000daa:	2800      	cmp	r0, #0
 8000dac:	d0e7      	beq.n	8000d7e <SIM_RX+0x32>
 8000dae:	703d      	strb	r5, [r7, #0]
 8000db0:	2001      	movs	r0, #1
 8000db2:	e7e4      	b.n	8000d7e <SIM_RX+0x32>
 8000db4:	548b      	strb	r3, [r1, r2]
 8000db6:	3201      	adds	r2, #1
 8000db8:	7022      	strb	r2, [r4, #0]
 8000dba:	e7f9      	b.n	8000db0 <SIM_RX+0x64>
 8000dbc:	200002dd 	.word	0x200002dd
 8000dc0:	200002dc 	.word	0x200002dc
 8000dc4:	200003fa 	.word	0x200003fa
 8000dc8:	20000452 	.word	0x20000452
 8000dcc:	20000341 	.word	0x20000341

08000dd0 <HAL_UART_RxCpltCallback>:
 8000dd0:	6802      	ldr	r2, [r0, #0]
 8000dd2:	4b12      	ldr	r3, [pc, #72]	; (8000e1c <HAL_UART_RxCpltCallback+0x4c>)
 8000dd4:	b510      	push	{r4, lr}
 8000dd6:	429a      	cmp	r2, r3
 8000dd8:	4604      	mov	r4, r0
 8000dda:	d106      	bne.n	8000dea <HAL_UART_RxCpltCallback+0x1a>
 8000ddc:	4810      	ldr	r0, [pc, #64]	; (8000e20 <HAL_UART_RxCpltCallback+0x50>)
 8000dde:	f7ff ff57 	bl	8000c90 <GPS_RX>
 8000de2:	b998      	cbnz	r0, 8000e0c <HAL_UART_RxCpltCallback+0x3c>
 8000de4:	2201      	movs	r2, #1
 8000de6:	4b0f      	ldr	r3, [pc, #60]	; (8000e24 <HAL_UART_RxCpltCallback+0x54>)
 8000de8:	701a      	strb	r2, [r3, #0]
 8000dea:	6822      	ldr	r2, [r4, #0]
 8000dec:	4b0e      	ldr	r3, [pc, #56]	; (8000e28 <HAL_UART_RxCpltCallback+0x58>)
 8000dee:	429a      	cmp	r2, r3
 8000df0:	d112      	bne.n	8000e18 <HAL_UART_RxCpltCallback+0x48>
 8000df2:	f7ff ffab 	bl	8000d4c <SIM_RX>
 8000df6:	b910      	cbnz	r0, 8000dfe <HAL_UART_RxCpltCallback+0x2e>
 8000df8:	2201      	movs	r2, #1
 8000dfa:	4b0c      	ldr	r3, [pc, #48]	; (8000e2c <HAL_UART_RxCpltCallback+0x5c>)
 8000dfc:	701a      	strb	r2, [r3, #0]
 8000dfe:	2201      	movs	r2, #1
 8000e00:	e8bd 4010 	ldmia.w	sp!, {r4, lr}
 8000e04:	490a      	ldr	r1, [pc, #40]	; (8000e30 <HAL_UART_RxCpltCallback+0x60>)
 8000e06:	480b      	ldr	r0, [pc, #44]	; (8000e34 <HAL_UART_RxCpltCallback+0x64>)
 8000e08:	f001 bd36 	b.w	8002878 <HAL_UART_Receive_DMA>
 8000e0c:	2201      	movs	r2, #1
 8000e0e:	490a      	ldr	r1, [pc, #40]	; (8000e38 <HAL_UART_RxCpltCallback+0x68>)
 8000e10:	480a      	ldr	r0, [pc, #40]	; (8000e3c <HAL_UART_RxCpltCallback+0x6c>)
 8000e12:	f001 fd31 	bl	8002878 <HAL_UART_Receive_DMA>
 8000e16:	e7e8      	b.n	8000dea <HAL_UART_RxCpltCallback+0x1a>
 8000e18:	bd10      	pop	{r4, pc}
 8000e1a:	bf00      	nop
 8000e1c:	40004400 	.word	0x40004400
 8000e20:	080049dd 	.word	0x080049dd
 8000e24:	200003a6 	.word	0x200003a6
 8000e28:	40004800 	.word	0x40004800
 8000e2c:	2000044f 	.word	0x2000044f
 8000e30:	20000452 	.word	0x20000452
 8000e34:	20000278 	.word	0x20000278
 8000e38:	20000450 	.word	0x20000450
 8000e3c:	20000230 	.word	0x20000230

08000e40 <Reset_Handler>:
 8000e40:	f7ff ff24 	bl	8000c8c <SystemInit>
 8000e44:	480b      	ldr	r0, [pc, #44]	; (8000e74 <LoopFillZerobss+0xe>)
 8000e46:	490c      	ldr	r1, [pc, #48]	; (8000e78 <LoopFillZerobss+0x12>)
 8000e48:	4a0c      	ldr	r2, [pc, #48]	; (8000e7c <LoopFillZerobss+0x16>)
 8000e4a:	2300      	movs	r3, #0
 8000e4c:	e002      	b.n	8000e54 <LoopCopyDataInit>

08000e4e <CopyDataInit>:
 8000e4e:	58d4      	ldr	r4, [r2, r3]
 8000e50:	50c4      	str	r4, [r0, r3]
 8000e52:	3304      	adds	r3, #4

08000e54 <LoopCopyDataInit>:
 8000e54:	18c4      	adds	r4, r0, r3
 8000e56:	428c      	cmp	r4, r1
 8000e58:	d3f9      	bcc.n	8000e4e <CopyDataInit>
 8000e5a:	4a09      	ldr	r2, [pc, #36]	; (8000e80 <LoopFillZerobss+0x1a>)
 8000e5c:	4c09      	ldr	r4, [pc, #36]	; (8000e84 <LoopFillZerobss+0x1e>)
 8000e5e:	2300      	movs	r3, #0
 8000e60:	e001      	b.n	8000e66 <LoopFillZerobss>

08000e62 <FillZerobss>:
 8000e62:	6013      	str	r3, [r2, #0]
 8000e64:	3204      	adds	r2, #4

08000e66 <LoopFillZerobss>:
 8000e66:	42a2      	cmp	r2, r4
 8000e68:	d3fb      	bcc.n	8000e62 <FillZerobss>
 8000e6a:	f001 fd1d 	bl	80028a8 <__libc_init_array>
 8000e6e:	f7ff f9ad 	bl	80001cc <main>
 8000e72:	4770      	bx	lr
 8000e74:	20000000 	.word	0x20000000
 8000e78:	20000114 	.word	0x20000114
 8000e7c:	08004c70 	.word	0x08004c70
 8000e80:	20000114 	.word	0x20000114
 8000e84:	20000468 	.word	0x20000468

08000e88 <ADC1_2_IRQHandler>:
 8000e88:	e7fe      	b.n	8000e88 <ADC1_2_IRQHandler>
	...

08000e8c <HAL_InitTick>:
 8000e8c:	b538      	push	{r3, r4, r5, lr}
 8000e8e:	4b0e      	ldr	r3, [pc, #56]	; (8000ec8 <HAL_InitTick+0x3c>)
 8000e90:	4605      	mov	r5, r0
 8000e92:	7818      	ldrb	r0, [r3, #0]
 8000e94:	f44f 737a 	mov.w	r3, #1000	; 0x3e8
 8000e98:	fbb3 f3f0 	udiv	r3, r3, r0
 8000e9c:	4a0b      	ldr	r2, [pc, #44]	; (8000ecc <HAL_InitTick+0x40>)
 8000e9e:	6810      	ldr	r0, [r2, #0]
 8000ea0:	fbb0 f0f3 	udiv	r0, r0, r3
 8000ea4:	f000 f8a6 	bl	8000ff4 <HAL_SYSTICK_Config>
 8000ea8:	4604      	mov	r4, r0
 8000eaa:	b958      	cbnz	r0, 8000ec4 <HAL_InitTick+0x38>
 8000eac:	2d0f      	cmp	r5, #15
 8000eae:	d809      	bhi.n	8000ec4 <HAL_InitTick+0x38>
 8000eb0:	4602      	mov	r2, r0
 8000eb2:	4629      	mov	r1, r5
 8000eb4:	f04f 30ff 	mov.w	r0, #4294967295
 8000eb8:	f000 f85c 	bl	8000f74 <HAL_NVIC_SetPriority>
 8000ebc:	4620      	mov	r0, r4
 8000ebe:	4b04      	ldr	r3, [pc, #16]	; (8000ed0 <HAL_InitTick+0x44>)
 8000ec0:	601d      	str	r5, [r3, #0]
 8000ec2:	bd38      	pop	{r3, r4, r5, pc}
 8000ec4:	2001      	movs	r0, #1
 8000ec6:	e7fc      	b.n	8000ec2 <HAL_InitTick+0x36>
 8000ec8:	200000a8 	.word	0x200000a8
 8000ecc:	200000a4 	.word	0x200000a4
 8000ed0:	200000ac 	.word	0x200000ac

08000ed4 <HAL_Init>:
 8000ed4:	4a07      	ldr	r2, [pc, #28]	; (8000ef4 <HAL_Init+0x20>)
 8000ed6:	b508      	push	{r3, lr}
 8000ed8:	6813      	ldr	r3, [r2, #0]
 8000eda:	2003      	movs	r0, #3
 8000edc:	f043 0310 	orr.w	r3, r3, #16
 8000ee0:	6013      	str	r3, [r2, #0]
 8000ee2:	f000 f835 	bl	8000f50 <HAL_NVIC_SetPriorityGrouping>
 8000ee6:	2000      	movs	r0, #0
 8000ee8:	f7ff ffd0 	bl	8000e8c <HAL_InitTick>
 8000eec:	f7ff fd38 	bl	8000960 <HAL_MspInit>
 8000ef0:	2000      	movs	r0, #0
 8000ef2:	bd08      	pop	{r3, pc}
 8000ef4:	40022000 	.word	0x40022000

08000ef8 <HAL_IncTick>:
 8000ef8:	4a03      	ldr	r2, [pc, #12]	; (8000f08 <HAL_IncTick+0x10>)
 8000efa:	4b04      	ldr	r3, [pc, #16]	; (8000f0c <HAL_IncTick+0x14>)
 8000efc:	6811      	ldr	r1, [r2, #0]
 8000efe:	781b      	ldrb	r3, [r3, #0]
 8000f00:	440b      	add	r3, r1
 8000f02:	6013      	str	r3, [r2, #0]
 8000f04:	4770      	bx	lr
 8000f06:	bf00      	nop
 8000f08:	20000454 	.word	0x20000454
 8000f0c:	200000a8 	.word	0x200000a8

08000f10 <HAL_GetTick>:
 8000f10:	4b01      	ldr	r3, [pc, #4]	; (8000f18 <HAL_GetTick+0x8>)
 8000f12:	6818      	ldr	r0, [r3, #0]
 8000f14:	4770      	bx	lr
 8000f16:	bf00      	nop
 8000f18:	20000454 	.word	0x20000454

08000f1c <HAL_Delay>:
 8000f1c:	b538      	push	{r3, r4, r5, lr}
 8000f1e:	4604      	mov	r4, r0
 8000f20:	f7ff fff6 	bl	8000f10 <HAL_GetTick>
 8000f24:	4605      	mov	r5, r0
 8000f26:	1c63      	adds	r3, r4, #1
 8000f28:	bf1e      	ittt	ne
 8000f2a:	4b04      	ldrne	r3, [pc, #16]	; (8000f3c <HAL_Delay+0x20>)
 8000f2c:	781b      	ldrbne	r3, [r3, #0]
 8000f2e:	18e4      	addne	r4, r4, r3
 8000f30:	f7ff ffee 	bl	8000f10 <HAL_GetTick>
 8000f34:	1b43      	subs	r3, r0, r5
 8000f36:	42a3      	cmp	r3, r4
 8000f38:	d3fa      	bcc.n	8000f30 <HAL_Delay+0x14>
 8000f3a:	bd38      	pop	{r3, r4, r5, pc}
 8000f3c:	200000a8 	.word	0x200000a8

08000f40 <HAL_ResumeTick>:
 8000f40:	f04f 22e0 	mov.w	r2, #3758153728	; 0xe000e000
 8000f44:	6913      	ldr	r3, [r2, #16]
 8000f46:	f043 0302 	orr.w	r3, r3, #2
 8000f4a:	6113      	str	r3, [r2, #16]
 8000f4c:	4770      	bx	lr
	...

08000f50 <HAL_NVIC_SetPriorityGrouping>:
 8000f50:	4907      	ldr	r1, [pc, #28]	; (8000f70 <HAL_NVIC_SetPriorityGrouping+0x20>)
 8000f52:	0203      	lsls	r3, r0, #8
 8000f54:	68ca      	ldr	r2, [r1, #12]
 8000f56:	f403 63e0 	and.w	r3, r3, #1792	; 0x700
 8000f5a:	f422 62e0 	bic.w	r2, r2, #1792	; 0x700
 8000f5e:	0412      	lsls	r2, r2, #16
 8000f60:	0c12      	lsrs	r2, r2, #16
 8000f62:	4313      	orrs	r3, r2
 8000f64:	f043 63bf 	orr.w	r3, r3, #100139008	; 0x5f80000
 8000f68:	f443 3300 	orr.w	r3, r3, #131072	; 0x20000
 8000f6c:	60cb      	str	r3, [r1, #12]
 8000f6e:	4770      	bx	lr
 8000f70:	e000ed00 	.word	0xe000ed00

08000f74 <HAL_NVIC_SetPriority>:
 8000f74:	4b16      	ldr	r3, [pc, #88]	; (8000fd0 <HAL_NVIC_SetPriority+0x5c>)
 8000f76:	b530      	push	{r4, r5, lr}
 8000f78:	68dc      	ldr	r4, [r3, #12]
 8000f7a:	f3c4 2402 	ubfx	r4, r4, #8, #3
 8000f7e:	f1c4 0307 	rsb	r3, r4, #7
 8000f82:	1d25      	adds	r5, r4, #4
 8000f84:	2b04      	cmp	r3, #4
 8000f86:	bf28      	it	cs
 8000f88:	2304      	movcs	r3, #4
 8000f8a:	2d06      	cmp	r5, #6
 8000f8c:	f04f 35ff 	mov.w	r5, #4294967295
 8000f90:	bf98      	it	ls
 8000f92:	2400      	movls	r4, #0
 8000f94:	fa05 f303 	lsl.w	r3, r5, r3
 8000f98:	bf88      	it	hi
 8000f9a:	3c03      	subhi	r4, #3
 8000f9c:	ea21 0303 	bic.w	r3, r1, r3
 8000fa0:	40a3      	lsls	r3, r4
 8000fa2:	fa05 f404 	lsl.w	r4, r5, r4
 8000fa6:	ea22 0204 	bic.w	r2, r2, r4
 8000faa:	2800      	cmp	r0, #0
 8000fac:	ea43 0302 	orr.w	r3, r3, r2
 8000fb0:	bfac      	ite	ge
 8000fb2:	f100 4060 	addge.w	r0, r0, #3758096384	; 0xe0000000
 8000fb6:	4a07      	ldrlt	r2, [pc, #28]	; (8000fd4 <HAL_NVIC_SetPriority+0x60>)
 8000fb8:	ea4f 1303 	mov.w	r3, r3, lsl #4
 8000fbc:	b2db      	uxtb	r3, r3
 8000fbe:	bfab      	itete	ge
 8000fc0:	f500 4061 	addge.w	r0, r0, #57600	; 0xe100
 8000fc4:	f000 000f 	andlt.w	r0, r0, #15
 8000fc8:	f880 3300 	strbge.w	r3, [r0, #768]	; 0x300
 8000fcc:	5413      	strblt	r3, [r2, r0]
 8000fce:	bd30      	pop	{r4, r5, pc}
 8000fd0:	e000ed00 	.word	0xe000ed00
 8000fd4:	e000ed14 	.word	0xe000ed14

08000fd8 <HAL_NVIC_EnableIRQ>:
 8000fd8:	2800      	cmp	r0, #0
 8000fda:	db08      	blt.n	8000fee <HAL_NVIC_EnableIRQ+0x16>
 8000fdc:	2301      	movs	r3, #1
 8000fde:	0942      	lsrs	r2, r0, #5
 8000fe0:	f000 001f 	and.w	r0, r0, #31
 8000fe4:	fa03 f000 	lsl.w	r0, r3, r0
 8000fe8:	4b01      	ldr	r3, [pc, #4]	; (8000ff0 <HAL_NVIC_EnableIRQ+0x18>)
 8000fea:	f843 0022 	str.w	r0, [r3, r2, lsl #2]
 8000fee:	4770      	bx	lr
 8000ff0:	e000e100 	.word	0xe000e100

08000ff4 <HAL_SYSTICK_Config>:
 8000ff4:	3801      	subs	r0, #1
 8000ff6:	f1b0 7f80 	cmp.w	r0, #16777216	; 0x1000000
 8000ffa:	d20b      	bcs.n	8001014 <HAL_SYSTICK_Config+0x20>
 8000ffc:	f04f 23e0 	mov.w	r3, #3758153728	; 0xe000e000
 8001000:	21f0      	movs	r1, #240	; 0xf0
 8001002:	4a05      	ldr	r2, [pc, #20]	; (8001018 <HAL_SYSTICK_Config+0x24>)
 8001004:	6158      	str	r0, [r3, #20]
 8001006:	f882 1023 	strb.w	r1, [r2, #35]	; 0x23
 800100a:	2000      	movs	r0, #0
 800100c:	2207      	movs	r2, #7
 800100e:	6198      	str	r0, [r3, #24]
 8001010:	611a      	str	r2, [r3, #16]
 8001012:	4770      	bx	lr
 8001014:	2001      	movs	r0, #1
 8001016:	4770      	bx	lr
 8001018:	e000ed00 	.word	0xe000ed00

0800101c <HAL_DMA_Init>:
 800101c:	b510      	push	{r4, lr}
 800101e:	b348      	cbz	r0, 8001074 <HAL_DMA_Init+0x58>
 8001020:	2214      	movs	r2, #20
 8001022:	6801      	ldr	r1, [r0, #0]
 8001024:	4b14      	ldr	r3, [pc, #80]	; (8001078 <HAL_DMA_Init+0x5c>)
 8001026:	440b      	add	r3, r1
 8001028:	fbb3 f3f2 	udiv	r3, r3, r2
 800102c:	009b      	lsls	r3, r3, #2
 800102e:	6403      	str	r3, [r0, #64]	; 0x40
 8001030:	4b12      	ldr	r3, [pc, #72]	; (800107c <HAL_DMA_Init+0x60>)
 8001032:	63c3      	str	r3, [r0, #60]	; 0x3c
 8001034:	2302      	movs	r3, #2
 8001036:	f880 3021 	strb.w	r3, [r0, #33]	; 0x21
 800103a:	e9d0 3401 	ldrd	r3, r4, [r0, #4]
 800103e:	4323      	orrs	r3, r4
 8001040:	68c4      	ldr	r4, [r0, #12]
 8001042:	680a      	ldr	r2, [r1, #0]
 8001044:	4323      	orrs	r3, r4
 8001046:	6904      	ldr	r4, [r0, #16]
 8001048:	f422 527f 	bic.w	r2, r2, #16320	; 0x3fc0
 800104c:	4323      	orrs	r3, r4
 800104e:	6944      	ldr	r4, [r0, #20]
 8001050:	f022 0230 	bic.w	r2, r2, #48	; 0x30
 8001054:	4323      	orrs	r3, r4
 8001056:	6984      	ldr	r4, [r0, #24]
 8001058:	4323      	orrs	r3, r4
 800105a:	69c4      	ldr	r4, [r0, #28]
 800105c:	4323      	orrs	r3, r4
 800105e:	4313      	orrs	r3, r2
 8001060:	600b      	str	r3, [r1, #0]
 8001062:	2201      	movs	r2, #1
 8001064:	2300      	movs	r3, #0
 8001066:	6383      	str	r3, [r0, #56]	; 0x38
 8001068:	f880 3020 	strb.w	r3, [r0, #32]
 800106c:	f880 2021 	strb.w	r2, [r0, #33]	; 0x21
 8001070:	4618      	mov	r0, r3
 8001072:	bd10      	pop	{r4, pc}
 8001074:	2001      	movs	r0, #1
 8001076:	e7fc      	b.n	8001072 <HAL_DMA_Init+0x56>
 8001078:	bffdfff8 	.word	0xbffdfff8
 800107c:	40020000 	.word	0x40020000

08001080 <HAL_DMA_Start_IT>:
 8001080:	b5f0      	push	{r4, r5, r6, r7, lr}
 8001082:	f890 4020 	ldrb.w	r4, [r0, #32]
 8001086:	2c01      	cmp	r4, #1
 8001088:	d034      	beq.n	80010f4 <HAL_DMA_Start_IT+0x74>
 800108a:	2401      	movs	r4, #1
 800108c:	f880 4020 	strb.w	r4, [r0, #32]
 8001090:	f890 4021 	ldrb.w	r4, [r0, #33]	; 0x21
 8001094:	2600      	movs	r6, #0
 8001096:	2c01      	cmp	r4, #1
 8001098:	b2e5      	uxtb	r5, r4
 800109a:	f04f 0402 	mov.w	r4, #2
 800109e:	d127      	bne.n	80010f0 <HAL_DMA_Start_IT+0x70>
 80010a0:	f880 4021 	strb.w	r4, [r0, #33]	; 0x21
 80010a4:	6804      	ldr	r4, [r0, #0]
 80010a6:	6386      	str	r6, [r0, #56]	; 0x38
 80010a8:	6826      	ldr	r6, [r4, #0]
 80010aa:	f026 0601 	bic.w	r6, r6, #1
 80010ae:	6026      	str	r6, [r4, #0]
 80010b0:	e9d0 670f 	ldrd	r6, r7, [r0, #60]	; 0x3c
 80010b4:	40bd      	lsls	r5, r7
 80010b6:	6075      	str	r5, [r6, #4]
 80010b8:	6063      	str	r3, [r4, #4]
 80010ba:	6843      	ldr	r3, [r0, #4]
 80010bc:	2b10      	cmp	r3, #16
 80010be:	6ac3      	ldr	r3, [r0, #44]	; 0x2c
 80010c0:	bf0b      	itete	eq
 80010c2:	60a2      	streq	r2, [r4, #8]
 80010c4:	60a1      	strne	r1, [r4, #8]
 80010c6:	60e1      	streq	r1, [r4, #12]
 80010c8:	60e2      	strne	r2, [r4, #12]
 80010ca:	b14b      	cbz	r3, 80010e0 <HAL_DMA_Start_IT+0x60>
 80010cc:	6823      	ldr	r3, [r4, #0]
 80010ce:	f043 030e 	orr.w	r3, r3, #14
 80010d2:	2000      	movs	r0, #0
 80010d4:	6023      	str	r3, [r4, #0]
 80010d6:	6823      	ldr	r3, [r4, #0]
 80010d8:	f043 0301 	orr.w	r3, r3, #1
 80010dc:	6023      	str	r3, [r4, #0]
 80010de:	bdf0      	pop	{r4, r5, r6, r7, pc}
 80010e0:	6823      	ldr	r3, [r4, #0]
 80010e2:	f023 0304 	bic.w	r3, r3, #4
 80010e6:	6023      	str	r3, [r4, #0]
 80010e8:	6823      	ldr	r3, [r4, #0]
 80010ea:	f043 030a 	orr.w	r3, r3, #10
 80010ee:	e7f0      	b.n	80010d2 <HAL_DMA_Start_IT+0x52>
 80010f0:	f880 6020 	strb.w	r6, [r0, #32]
 80010f4:	2002      	movs	r0, #2
 80010f6:	e7f2      	b.n	80010de <HAL_DMA_Start_IT+0x5e>

080010f8 <HAL_DMA_Abort>:
 80010f8:	f890 3021 	ldrb.w	r3, [r0, #33]	; 0x21
 80010fc:	2b02      	cmp	r3, #2
 80010fe:	d006      	beq.n	800110e <HAL_DMA_Abort+0x16>
 8001100:	2304      	movs	r3, #4
 8001102:	6383      	str	r3, [r0, #56]	; 0x38
 8001104:	2300      	movs	r3, #0
 8001106:	f880 3020 	strb.w	r3, [r0, #32]
 800110a:	2001      	movs	r0, #1
 800110c:	4770      	bx	lr
 800110e:	6803      	ldr	r3, [r0, #0]
 8001110:	6bc1      	ldr	r1, [r0, #60]	; 0x3c
 8001112:	681a      	ldr	r2, [r3, #0]
 8001114:	f022 020e 	bic.w	r2, r2, #14
 8001118:	601a      	str	r2, [r3, #0]
 800111a:	681a      	ldr	r2, [r3, #0]
 800111c:	f022 0201 	bic.w	r2, r2, #1
 8001120:	601a      	str	r2, [r3, #0]
 8001122:	2201      	movs	r2, #1
 8001124:	6c03      	ldr	r3, [r0, #64]	; 0x40
 8001126:	fa02 f303 	lsl.w	r3, r2, r3
 800112a:	604b      	str	r3, [r1, #4]
 800112c:	2300      	movs	r3, #0
 800112e:	f880 2021 	strb.w	r2, [r0, #33]	; 0x21
 8001132:	f880 3020 	strb.w	r3, [r0, #32]
 8001136:	4618      	mov	r0, r3
 8001138:	4770      	bx	lr
	...

0800113c <HAL_DMA_Abort_IT>:
 800113c:	b510      	push	{r4, lr}
 800113e:	f890 3021 	ldrb.w	r3, [r0, #33]	; 0x21
 8001142:	2b02      	cmp	r3, #2
 8001144:	d003      	beq.n	800114e <HAL_DMA_Abort_IT+0x12>
 8001146:	2304      	movs	r3, #4
 8001148:	6383      	str	r3, [r0, #56]	; 0x38
 800114a:	2001      	movs	r0, #1
 800114c:	bd10      	pop	{r4, pc}
 800114e:	6803      	ldr	r3, [r0, #0]
 8001150:	681a      	ldr	r2, [r3, #0]
 8001152:	f022 020e 	bic.w	r2, r2, #14
 8001156:	601a      	str	r2, [r3, #0]
 8001158:	681a      	ldr	r2, [r3, #0]
 800115a:	f022 0201 	bic.w	r2, r2, #1
 800115e:	601a      	str	r2, [r3, #0]
 8001160:	4a18      	ldr	r2, [pc, #96]	; (80011c4 <HAL_DMA_Abort_IT+0x88>)
 8001162:	4293      	cmp	r3, r2
 8001164:	d01f      	beq.n	80011a6 <HAL_DMA_Abort_IT+0x6a>
 8001166:	3214      	adds	r2, #20
 8001168:	4293      	cmp	r3, r2
 800116a:	d01e      	beq.n	80011aa <HAL_DMA_Abort_IT+0x6e>
 800116c:	3214      	adds	r2, #20
 800116e:	4293      	cmp	r3, r2
 8001170:	d01d      	beq.n	80011ae <HAL_DMA_Abort_IT+0x72>
 8001172:	3214      	adds	r2, #20
 8001174:	4293      	cmp	r3, r2
 8001176:	d01d      	beq.n	80011b4 <HAL_DMA_Abort_IT+0x78>
 8001178:	3214      	adds	r2, #20
 800117a:	4293      	cmp	r3, r2
 800117c:	d01d      	beq.n	80011ba <HAL_DMA_Abort_IT+0x7e>
 800117e:	3214      	adds	r2, #20
 8001180:	4293      	cmp	r3, r2
 8001182:	bf0c      	ite	eq
 8001184:	f44f 1380 	moveq.w	r3, #1048576	; 0x100000
 8001188:	f04f 7380 	movne.w	r3, #16777216	; 0x1000000
 800118c:	4a0e      	ldr	r2, [pc, #56]	; (80011c8 <HAL_DMA_Abort_IT+0x8c>)
 800118e:	2400      	movs	r4, #0
 8001190:	6053      	str	r3, [r2, #4]
 8001192:	2301      	movs	r3, #1
 8001194:	f880 3021 	strb.w	r3, [r0, #33]	; 0x21
 8001198:	6b43      	ldr	r3, [r0, #52]	; 0x34
 800119a:	f880 4020 	strb.w	r4, [r0, #32]
 800119e:	b17b      	cbz	r3, 80011c0 <HAL_DMA_Abort_IT+0x84>
 80011a0:	4798      	blx	r3
 80011a2:	4620      	mov	r0, r4
 80011a4:	e7d2      	b.n	800114c <HAL_DMA_Abort_IT+0x10>
 80011a6:	2301      	movs	r3, #1
 80011a8:	e7f0      	b.n	800118c <HAL_DMA_Abort_IT+0x50>
 80011aa:	2310      	movs	r3, #16
 80011ac:	e7ee      	b.n	800118c <HAL_DMA_Abort_IT+0x50>
 80011ae:	f44f 7380 	mov.w	r3, #256	; 0x100
 80011b2:	e7eb      	b.n	800118c <HAL_DMA_Abort_IT+0x50>
 80011b4:	f44f 5380 	mov.w	r3, #4096	; 0x1000
 80011b8:	e7e8      	b.n	800118c <HAL_DMA_Abort_IT+0x50>
 80011ba:	f44f 3380 	mov.w	r3, #65536	; 0x10000
 80011be:	e7e5      	b.n	800118c <HAL_DMA_Abort_IT+0x50>
 80011c0:	4618      	mov	r0, r3
 80011c2:	e7c3      	b.n	800114c <HAL_DMA_Abort_IT+0x10>
 80011c4:	40020008 	.word	0x40020008
 80011c8:	40020000 	.word	0x40020000

080011cc <HAL_DMA_IRQHandler>:
 80011cc:	b470      	push	{r4, r5, r6}
 80011ce:	2504      	movs	r5, #4
 80011d0:	6bc6      	ldr	r6, [r0, #60]	; 0x3c
 80011d2:	6c02      	ldr	r2, [r0, #64]	; 0x40
 80011d4:	6834      	ldr	r4, [r6, #0]
 80011d6:	6803      	ldr	r3, [r0, #0]
 80011d8:	4095      	lsls	r5, r2
 80011da:	4225      	tst	r5, r4
 80011dc:	6819      	ldr	r1, [r3, #0]
 80011de:	d032      	beq.n	8001246 <HAL_DMA_IRQHandler+0x7a>
 80011e0:	074d      	lsls	r5, r1, #29
 80011e2:	d530      	bpl.n	8001246 <HAL_DMA_IRQHandler+0x7a>
 80011e4:	681a      	ldr	r2, [r3, #0]
 80011e6:	0696      	lsls	r6, r2, #26
 80011e8:	bf5e      	ittt	pl
 80011ea:	681a      	ldrpl	r2, [r3, #0]
 80011ec:	f022 0204 	bicpl.w	r2, r2, #4
 80011f0:	601a      	strpl	r2, [r3, #0]
 80011f2:	4a3e      	ldr	r2, [pc, #248]	; (80012ec <HAL_DMA_IRQHandler+0x120>)
 80011f4:	4293      	cmp	r3, r2
 80011f6:	d019      	beq.n	800122c <HAL_DMA_IRQHandler+0x60>
 80011f8:	3214      	adds	r2, #20
 80011fa:	4293      	cmp	r3, r2
 80011fc:	d018      	beq.n	8001230 <HAL_DMA_IRQHandler+0x64>
 80011fe:	3214      	adds	r2, #20
 8001200:	4293      	cmp	r3, r2
 8001202:	d017      	beq.n	8001234 <HAL_DMA_IRQHandler+0x68>
 8001204:	3214      	adds	r2, #20
 8001206:	4293      	cmp	r3, r2
 8001208:	d017      	beq.n	800123a <HAL_DMA_IRQHandler+0x6e>
 800120a:	3214      	adds	r2, #20
 800120c:	4293      	cmp	r3, r2
 800120e:	d017      	beq.n	8001240 <HAL_DMA_IRQHandler+0x74>
 8001210:	3214      	adds	r2, #20
 8001212:	4293      	cmp	r3, r2
 8001214:	bf0c      	ite	eq
 8001216:	f44f 0380 	moveq.w	r3, #4194304	; 0x400000
 800121a:	f04f 6380 	movne.w	r3, #67108864	; 0x4000000
 800121e:	4a34      	ldr	r2, [pc, #208]	; (80012f0 <HAL_DMA_IRQHandler+0x124>)
 8001220:	6053      	str	r3, [r2, #4]
 8001222:	6ac3      	ldr	r3, [r0, #44]	; 0x2c
 8001224:	2b00      	cmp	r3, #0
 8001226:	d05e      	beq.n	80012e6 <HAL_DMA_IRQHandler+0x11a>
 8001228:	bc70      	pop	{r4, r5, r6}
 800122a:	4718      	bx	r3
 800122c:	2304      	movs	r3, #4
 800122e:	e7f6      	b.n	800121e <HAL_DMA_IRQHandler+0x52>
 8001230:	2340      	movs	r3, #64	; 0x40
 8001232:	e7f4      	b.n	800121e <HAL_DMA_IRQHandler+0x52>
 8001234:	f44f 6380 	mov.w	r3, #1024	; 0x400
 8001238:	e7f1      	b.n	800121e <HAL_DMA_IRQHandler+0x52>
 800123a:	f44f 4380 	mov.w	r3, #16384	; 0x4000
 800123e:	e7ee      	b.n	800121e <HAL_DMA_IRQHandler+0x52>
 8001240:	f44f 2380 	mov.w	r3, #262144	; 0x40000
 8001244:	e7eb      	b.n	800121e <HAL_DMA_IRQHandler+0x52>
 8001246:	2502      	movs	r5, #2
 8001248:	4095      	lsls	r5, r2
 800124a:	4225      	tst	r5, r4
 800124c:	d035      	beq.n	80012ba <HAL_DMA_IRQHandler+0xee>
 800124e:	078d      	lsls	r5, r1, #30
 8001250:	d533      	bpl.n	80012ba <HAL_DMA_IRQHandler+0xee>
 8001252:	681a      	ldr	r2, [r3, #0]
 8001254:	0694      	lsls	r4, r2, #26
 8001256:	d406      	bmi.n	8001266 <HAL_DMA_IRQHandler+0x9a>
 8001258:	681a      	ldr	r2, [r3, #0]
 800125a:	f022 020a 	bic.w	r2, r2, #10
 800125e:	601a      	str	r2, [r3, #0]
 8001260:	2201      	movs	r2, #1
 8001262:	f880 2021 	strb.w	r2, [r0, #33]	; 0x21
 8001266:	4a21      	ldr	r2, [pc, #132]	; (80012ec <HAL_DMA_IRQHandler+0x120>)
 8001268:	4293      	cmp	r3, r2
 800126a:	d019      	beq.n	80012a0 <HAL_DMA_IRQHandler+0xd4>
 800126c:	3214      	adds	r2, #20
 800126e:	4293      	cmp	r3, r2
 8001270:	d018      	beq.n	80012a4 <HAL_DMA_IRQHandler+0xd8>
 8001272:	3214      	adds	r2, #20
 8001274:	4293      	cmp	r3, r2
 8001276:	d017      	beq.n	80012a8 <HAL_DMA_IRQHandler+0xdc>
 8001278:	3214      	adds	r2, #20
 800127a:	4293      	cmp	r3, r2
 800127c:	d017      	beq.n	80012ae <HAL_DMA_IRQHandler+0xe2>
 800127e:	3214      	adds	r2, #20
 8001280:	4293      	cmp	r3, r2
 8001282:	d017      	beq.n	80012b4 <HAL_DMA_IRQHandler+0xe8>
 8001284:	3214      	adds	r2, #20
 8001286:	4293      	cmp	r3, r2
 8001288:	bf0c      	ite	eq
 800128a:	f44f 1300 	moveq.w	r3, #2097152	; 0x200000
 800128e:	f04f 7300 	movne.w	r3, #33554432	; 0x2000000
 8001292:	4a17      	ldr	r2, [pc, #92]	; (80012f0 <HAL_DMA_IRQHandler+0x124>)
 8001294:	6053      	str	r3, [r2, #4]
 8001296:	2300      	movs	r3, #0
 8001298:	f880 3020 	strb.w	r3, [r0, #32]
 800129c:	6a83      	ldr	r3, [r0, #40]	; 0x28
 800129e:	e7c1      	b.n	8001224 <HAL_DMA_IRQHandler+0x58>
 80012a0:	2302      	movs	r3, #2
 80012a2:	e7f6      	b.n	8001292 <HAL_DMA_IRQHandler+0xc6>
 80012a4:	2320      	movs	r3, #32
 80012a6:	e7f4      	b.n	8001292 <HAL_DMA_IRQHandler+0xc6>
 80012a8:	f44f 7300 	mov.w	r3, #512	; 0x200
 80012ac:	e7f1      	b.n	8001292 <HAL_DMA_IRQHandler+0xc6>
 80012ae:	f44f 5300 	mov.w	r3, #8192	; 0x2000
 80012b2:	e7ee      	b.n	8001292 <HAL_DMA_IRQHandler+0xc6>
 80012b4:	f44f 3300 	mov.w	r3, #131072	; 0x20000
 80012b8:	e7eb      	b.n	8001292 <HAL_DMA_IRQHandler+0xc6>
 80012ba:	2508      	movs	r5, #8
 80012bc:	4095      	lsls	r5, r2
 80012be:	4225      	tst	r5, r4
 80012c0:	d011      	beq.n	80012e6 <HAL_DMA_IRQHandler+0x11a>
 80012c2:	0709      	lsls	r1, r1, #28
 80012c4:	d50f      	bpl.n	80012e6 <HAL_DMA_IRQHandler+0x11a>
 80012c6:	6819      	ldr	r1, [r3, #0]
 80012c8:	f021 010e 	bic.w	r1, r1, #14
 80012cc:	6019      	str	r1, [r3, #0]
 80012ce:	2301      	movs	r3, #1
 80012d0:	fa03 f202 	lsl.w	r2, r3, r2
 80012d4:	6072      	str	r2, [r6, #4]
 80012d6:	6383      	str	r3, [r0, #56]	; 0x38
 80012d8:	f880 3021 	strb.w	r3, [r0, #33]	; 0x21
 80012dc:	2300      	movs	r3, #0
 80012de:	f880 3020 	strb.w	r3, [r0, #32]
 80012e2:	6b03      	ldr	r3, [r0, #48]	; 0x30
 80012e4:	e79e      	b.n	8001224 <HAL_DMA_IRQHandler+0x58>
 80012e6:	bc70      	pop	{r4, r5, r6}
 80012e8:	4770      	bx	lr
 80012ea:	bf00      	nop
 80012ec:	40020008 	.word	0x40020008
 80012f0:	40020000 	.word	0x40020000

080012f4 <HAL_GPIO_Init>:
 80012f4:	e92d 4ff7 	stmdb	sp!, {r0, r1, r2, r4, r5, r6, r7, r8, r9, sl, fp, lr}
 80012f8:	2200      	movs	r2, #0
 80012fa:	4616      	mov	r6, r2
 80012fc:	4f64      	ldr	r7, [pc, #400]	; (8001490 <HAL_GPIO_Init+0x19c>)
 80012fe:	4b65      	ldr	r3, [pc, #404]	; (8001494 <HAL_GPIO_Init+0x1a0>)
 8001300:	f8df c194 	ldr.w	ip, [pc, #404]	; 8001498 <HAL_GPIO_Init+0x1a4>
 8001304:	f8df e194 	ldr.w	lr, [pc, #404]	; 800149c <HAL_GPIO_Init+0x1a8>
 8001308:	680d      	ldr	r5, [r1, #0]
 800130a:	fa35 f406 	lsrs.w	r4, r5, r6
 800130e:	d102      	bne.n	8001316 <HAL_GPIO_Init+0x22>
 8001310:	b003      	add	sp, #12
 8001312:	e8bd 8ff0 	ldmia.w	sp!, {r4, r5, r6, r7, r8, r9, sl, fp, pc}
 8001316:	f04f 0801 	mov.w	r8, #1
 800131a:	fa08 f806 	lsl.w	r8, r8, r6
 800131e:	ea05 0408 	and.w	r4, r5, r8
 8001322:	ea38 0505 	bics.w	r5, r8, r5
 8001326:	d17b      	bne.n	8001420 <HAL_GPIO_Init+0x12c>
 8001328:	684d      	ldr	r5, [r1, #4]
 800132a:	2d03      	cmp	r5, #3
 800132c:	d807      	bhi.n	800133e <HAL_GPIO_Init+0x4a>
 800132e:	3d01      	subs	r5, #1
 8001330:	2d02      	cmp	r5, #2
 8001332:	f200 8088 	bhi.w	8001446 <HAL_GPIO_Init+0x152>
 8001336:	e8df f005 	tbb	[pc, r5]
 800133a:	9b96      	.short	0x9b96
 800133c:	a1          	.byte	0xa1
 800133d:	00          	.byte	0x00
 800133e:	2d12      	cmp	r5, #18
 8001340:	f000 8099 	beq.w	8001476 <HAL_GPIO_Init+0x182>
 8001344:	d86e      	bhi.n	8001424 <HAL_GPIO_Init+0x130>
 8001346:	2d11      	cmp	r5, #17
 8001348:	f000 808f 	beq.w	800146a <HAL_GPIO_Init+0x176>
 800134c:	2cff      	cmp	r4, #255	; 0xff
 800134e:	bf98      	it	ls
 8001350:	4682      	movls	sl, r0
 8001352:	f04f 090f 	mov.w	r9, #15
 8001356:	bf88      	it	hi
 8001358:	f100 0a04 	addhi.w	sl, r0, #4
 800135c:	ea4f 0586 	mov.w	r5, r6, lsl #2
 8001360:	f8da 8000 	ldr.w	r8, [sl]
 8001364:	bf88      	it	hi
 8001366:	3d20      	subhi	r5, #32
 8001368:	fa09 fb05 	lsl.w	fp, r9, r5
 800136c:	ea28 080b 	bic.w	r8, r8, fp
 8001370:	fa02 f505 	lsl.w	r5, r2, r5
 8001374:	ea48 0505 	orr.w	r5, r8, r5
 8001378:	f8ca 5000 	str.w	r5, [sl]
 800137c:	f8d1 a004 	ldr.w	sl, [r1, #4]
 8001380:	f01a 5f80 	tst.w	sl, #268435456	; 0x10000000
 8001384:	d04c      	beq.n	8001420 <HAL_GPIO_Init+0x12c>
 8001386:	69bd      	ldr	r5, [r7, #24]
 8001388:	f026 0803 	bic.w	r8, r6, #3
 800138c:	f045 0501 	orr.w	r5, r5, #1
 8001390:	61bd      	str	r5, [r7, #24]
 8001392:	69bd      	ldr	r5, [r7, #24]
 8001394:	f108 4880 	add.w	r8, r8, #1073741824	; 0x40000000
 8001398:	f005 0501 	and.w	r5, r5, #1
 800139c:	9501      	str	r5, [sp, #4]
 800139e:	f508 3880 	add.w	r8, r8, #65536	; 0x10000
 80013a2:	f006 0b03 	and.w	fp, r6, #3
 80013a6:	9d01      	ldr	r5, [sp, #4]
 80013a8:	ea4f 0b8b 	mov.w	fp, fp, lsl #2
 80013ac:	f8d8 5008 	ldr.w	r5, [r8, #8]
 80013b0:	fa09 f90b 	lsl.w	r9, r9, fp
 80013b4:	ea25 0909 	bic.w	r9, r5, r9
 80013b8:	4d39      	ldr	r5, [pc, #228]	; (80014a0 <HAL_GPIO_Init+0x1ac>)
 80013ba:	42a8      	cmp	r0, r5
 80013bc:	d062      	beq.n	8001484 <HAL_GPIO_Init+0x190>
 80013be:	f505 6580 	add.w	r5, r5, #1024	; 0x400
 80013c2:	42a8      	cmp	r0, r5
 80013c4:	d060      	beq.n	8001488 <HAL_GPIO_Init+0x194>
 80013c6:	f505 6580 	add.w	r5, r5, #1024	; 0x400
 80013ca:	42a8      	cmp	r0, r5
 80013cc:	d05e      	beq.n	800148c <HAL_GPIO_Init+0x198>
 80013ce:	f505 6580 	add.w	r5, r5, #1024	; 0x400
 80013d2:	42a8      	cmp	r0, r5
 80013d4:	bf0c      	ite	eq
 80013d6:	2503      	moveq	r5, #3
 80013d8:	2504      	movne	r5, #4
 80013da:	fa05 f50b 	lsl.w	r5, r5, fp
 80013de:	ea45 0509 	orr.w	r5, r5, r9
 80013e2:	f8c8 5008 	str.w	r5, [r8, #8]
 80013e6:	689d      	ldr	r5, [r3, #8]
 80013e8:	f41a 1f80 	tst.w	sl, #1048576	; 0x100000
 80013ec:	bf14      	ite	ne
 80013ee:	4325      	orrne	r5, r4
 80013f0:	43a5      	biceq	r5, r4
 80013f2:	609d      	str	r5, [r3, #8]
 80013f4:	68dd      	ldr	r5, [r3, #12]
 80013f6:	f41a 1f00 	tst.w	sl, #2097152	; 0x200000
 80013fa:	bf14      	ite	ne
 80013fc:	4325      	orrne	r5, r4
 80013fe:	43a5      	biceq	r5, r4
 8001400:	60dd      	str	r5, [r3, #12]
 8001402:	685d      	ldr	r5, [r3, #4]
 8001404:	f41a 3f00 	tst.w	sl, #131072	; 0x20000
 8001408:	bf14      	ite	ne
 800140a:	4325      	orrne	r5, r4
 800140c:	43a5      	biceq	r5, r4
 800140e:	605d      	str	r5, [r3, #4]
 8001410:	681d      	ldr	r5, [r3, #0]
 8001412:	f41a 3f80 	tst.w	sl, #65536	; 0x10000
 8001416:	bf14      	ite	ne
 8001418:	432c      	orrne	r4, r5
 800141a:	ea25 0404 	biceq.w	r4, r5, r4
 800141e:	601c      	str	r4, [r3, #0]
 8001420:	3601      	adds	r6, #1
 8001422:	e771      	b.n	8001308 <HAL_GPIO_Init+0x14>
 8001424:	f8df 907c 	ldr.w	r9, [pc, #124]	; 80014a4 <HAL_GPIO_Init+0x1b0>
 8001428:	454d      	cmp	r5, r9
 800142a:	d00c      	beq.n	8001446 <HAL_GPIO_Init+0x152>
 800142c:	d817      	bhi.n	800145e <HAL_GPIO_Init+0x16a>
 800142e:	f5a9 1980 	sub.w	r9, r9, #1048576	; 0x100000
 8001432:	454d      	cmp	r5, r9
 8001434:	d007      	beq.n	8001446 <HAL_GPIO_Init+0x152>
 8001436:	f509 2970 	add.w	r9, r9, #983040	; 0xf0000
 800143a:	454d      	cmp	r5, r9
 800143c:	d003      	beq.n	8001446 <HAL_GPIO_Init+0x152>
 800143e:	f5a9 1980 	sub.w	r9, r9, #1048576	; 0x100000
 8001442:	454d      	cmp	r5, r9
 8001444:	d182      	bne.n	800134c <HAL_GPIO_Init+0x58>
 8001446:	688a      	ldr	r2, [r1, #8]
 8001448:	b1d2      	cbz	r2, 8001480 <HAL_GPIO_Init+0x18c>
 800144a:	2a01      	cmp	r2, #1
 800144c:	bf08      	it	eq
 800144e:	f8c0 8010 	streq.w	r8, [r0, #16]
 8001452:	f04f 0208 	mov.w	r2, #8
 8001456:	bf18      	it	ne
 8001458:	f8c0 8014 	strne.w	r8, [r0, #20]
 800145c:	e776      	b.n	800134c <HAL_GPIO_Init+0x58>
 800145e:	4565      	cmp	r5, ip
 8001460:	d0f1      	beq.n	8001446 <HAL_GPIO_Init+0x152>
 8001462:	4575      	cmp	r5, lr
 8001464:	e7ee      	b.n	8001444 <HAL_GPIO_Init+0x150>
 8001466:	68ca      	ldr	r2, [r1, #12]
 8001468:	e770      	b.n	800134c <HAL_GPIO_Init+0x58>
 800146a:	68ca      	ldr	r2, [r1, #12]
 800146c:	3204      	adds	r2, #4
 800146e:	e76d      	b.n	800134c <HAL_GPIO_Init+0x58>
 8001470:	68ca      	ldr	r2, [r1, #12]
 8001472:	3208      	adds	r2, #8
 8001474:	e76a      	b.n	800134c <HAL_GPIO_Init+0x58>
 8001476:	68ca      	ldr	r2, [r1, #12]
 8001478:	320c      	adds	r2, #12
 800147a:	e767      	b.n	800134c <HAL_GPIO_Init+0x58>
 800147c:	2200      	movs	r2, #0
 800147e:	e765      	b.n	800134c <HAL_GPIO_Init+0x58>
 8001480:	2204      	movs	r2, #4
 8001482:	e763      	b.n	800134c <HAL_GPIO_Init+0x58>
 8001484:	2500      	movs	r5, #0
 8001486:	e7a8      	b.n	80013da <HAL_GPIO_Init+0xe6>
 8001488:	2501      	movs	r5, #1
 800148a:	e7a6      	b.n	80013da <HAL_GPIO_Init+0xe6>
 800148c:	2502      	movs	r5, #2
 800148e:	e7a4      	b.n	80013da <HAL_GPIO_Init+0xe6>
 8001490:	40021000 	.word	0x40021000
 8001494:	40010400 	.word	0x40010400
 8001498:	10310000 	.word	0x10310000
 800149c:	10320000 	.word	0x10320000
 80014a0:	40010800 	.word	0x40010800
 80014a4:	10220000 	.word	0x10220000

080014a8 <HAL_PWR_EnableBkUpAccess>:
 80014a8:	2201      	movs	r2, #1
 80014aa:	4b01      	ldr	r3, [pc, #4]	; (80014b0 <HAL_PWR_EnableBkUpAccess+0x8>)
 80014ac:	621a      	str	r2, [r3, #32]
 80014ae:	4770      	bx	lr
 80014b0:	420e0000 	.word	0x420e0000

080014b4 <HAL_RCC_OscConfig>:
 80014b4:	e92d 41f3 	stmdb	sp!, {r0, r1, r4, r5, r6, r7, r8, lr}
 80014b8:	4605      	mov	r5, r0
 80014ba:	b338      	cbz	r0, 800150c <HAL_RCC_OscConfig+0x58>
 80014bc:	6803      	ldr	r3, [r0, #0]
 80014be:	07db      	lsls	r3, r3, #31
 80014c0:	d410      	bmi.n	80014e4 <HAL_RCC_OscConfig+0x30>
 80014c2:	682b      	ldr	r3, [r5, #0]
 80014c4:	079f      	lsls	r7, r3, #30
 80014c6:	d45e      	bmi.n	8001586 <HAL_RCC_OscConfig+0xd2>
 80014c8:	682b      	ldr	r3, [r5, #0]
 80014ca:	0719      	lsls	r1, r3, #28
 80014cc:	f100 8095 	bmi.w	80015fa <HAL_RCC_OscConfig+0x146>
 80014d0:	682b      	ldr	r3, [r5, #0]
 80014d2:	075a      	lsls	r2, r3, #29
 80014d4:	f100 80c1 	bmi.w	800165a <HAL_RCC_OscConfig+0x1a6>
 80014d8:	69e8      	ldr	r0, [r5, #28]
 80014da:	2800      	cmp	r0, #0
 80014dc:	f040 812c 	bne.w	8001738 <HAL_RCC_OscConfig+0x284>
 80014e0:	2000      	movs	r0, #0
 80014e2:	e029      	b.n	8001538 <HAL_RCC_OscConfig+0x84>
 80014e4:	4c90      	ldr	r4, [pc, #576]	; (8001728 <HAL_RCC_OscConfig+0x274>)
 80014e6:	6863      	ldr	r3, [r4, #4]
 80014e8:	f003 030c 	and.w	r3, r3, #12
 80014ec:	2b04      	cmp	r3, #4
 80014ee:	d007      	beq.n	8001500 <HAL_RCC_OscConfig+0x4c>
 80014f0:	6863      	ldr	r3, [r4, #4]
 80014f2:	f003 030c 	and.w	r3, r3, #12
 80014f6:	2b08      	cmp	r3, #8
 80014f8:	d10a      	bne.n	8001510 <HAL_RCC_OscConfig+0x5c>
 80014fa:	6863      	ldr	r3, [r4, #4]
 80014fc:	03de      	lsls	r6, r3, #15
 80014fe:	d507      	bpl.n	8001510 <HAL_RCC_OscConfig+0x5c>
 8001500:	6823      	ldr	r3, [r4, #0]
 8001502:	039c      	lsls	r4, r3, #14
 8001504:	d5dd      	bpl.n	80014c2 <HAL_RCC_OscConfig+0xe>
 8001506:	686b      	ldr	r3, [r5, #4]
 8001508:	2b00      	cmp	r3, #0
 800150a:	d1da      	bne.n	80014c2 <HAL_RCC_OscConfig+0xe>
 800150c:	2001      	movs	r0, #1
 800150e:	e013      	b.n	8001538 <HAL_RCC_OscConfig+0x84>
 8001510:	686b      	ldr	r3, [r5, #4]
 8001512:	f5b3 3f80 	cmp.w	r3, #65536	; 0x10000
 8001516:	d112      	bne.n	800153e <HAL_RCC_OscConfig+0x8a>
 8001518:	6823      	ldr	r3, [r4, #0]
 800151a:	f443 3380 	orr.w	r3, r3, #65536	; 0x10000
 800151e:	6023      	str	r3, [r4, #0]
 8001520:	f7ff fcf6 	bl	8000f10 <HAL_GetTick>
 8001524:	4606      	mov	r6, r0
 8001526:	6823      	ldr	r3, [r4, #0]
 8001528:	0398      	lsls	r0, r3, #14
 800152a:	d4ca      	bmi.n	80014c2 <HAL_RCC_OscConfig+0xe>
 800152c:	f7ff fcf0 	bl	8000f10 <HAL_GetTick>
 8001530:	1b80      	subs	r0, r0, r6
 8001532:	2864      	cmp	r0, #100	; 0x64
 8001534:	d9f7      	bls.n	8001526 <HAL_RCC_OscConfig+0x72>
 8001536:	2003      	movs	r0, #3
 8001538:	b002      	add	sp, #8
 800153a:	e8bd 81f0 	ldmia.w	sp!, {r4, r5, r6, r7, r8, pc}
 800153e:	b99b      	cbnz	r3, 8001568 <HAL_RCC_OscConfig+0xb4>
 8001540:	6823      	ldr	r3, [r4, #0]
 8001542:	f423 3380 	bic.w	r3, r3, #65536	; 0x10000
 8001546:	6023      	str	r3, [r4, #0]
 8001548:	6823      	ldr	r3, [r4, #0]
 800154a:	f423 2380 	bic.w	r3, r3, #262144	; 0x40000
 800154e:	6023      	str	r3, [r4, #0]
 8001550:	f7ff fcde 	bl	8000f10 <HAL_GetTick>
 8001554:	4606      	mov	r6, r0
 8001556:	6823      	ldr	r3, [r4, #0]
 8001558:	0399      	lsls	r1, r3, #14
 800155a:	d5b2      	bpl.n	80014c2 <HAL_RCC_OscConfig+0xe>
 800155c:	f7ff fcd8 	bl	8000f10 <HAL_GetTick>
 8001560:	1b80      	subs	r0, r0, r6
 8001562:	2864      	cmp	r0, #100	; 0x64
 8001564:	d9f7      	bls.n	8001556 <HAL_RCC_OscConfig+0xa2>
 8001566:	e7e6      	b.n	8001536 <HAL_RCC_OscConfig+0x82>
 8001568:	f5b3 2fa0 	cmp.w	r3, #327680	; 0x50000
 800156c:	6823      	ldr	r3, [r4, #0]
 800156e:	d103      	bne.n	8001578 <HAL_RCC_OscConfig+0xc4>
 8001570:	f443 2380 	orr.w	r3, r3, #262144	; 0x40000
 8001574:	6023      	str	r3, [r4, #0]
 8001576:	e7cf      	b.n	8001518 <HAL_RCC_OscConfig+0x64>
 8001578:	f423 3380 	bic.w	r3, r3, #65536	; 0x10000
 800157c:	6023      	str	r3, [r4, #0]
 800157e:	6823      	ldr	r3, [r4, #0]
 8001580:	f423 2380 	bic.w	r3, r3, #262144	; 0x40000
 8001584:	e7cb      	b.n	800151e <HAL_RCC_OscConfig+0x6a>
 8001586:	4c68      	ldr	r4, [pc, #416]	; (8001728 <HAL_RCC_OscConfig+0x274>)
 8001588:	6863      	ldr	r3, [r4, #4]
 800158a:	f013 0f0c 	tst.w	r3, #12
 800158e:	d007      	beq.n	80015a0 <HAL_RCC_OscConfig+0xec>
 8001590:	6863      	ldr	r3, [r4, #4]
 8001592:	f003 030c 	and.w	r3, r3, #12
 8001596:	2b08      	cmp	r3, #8
 8001598:	d110      	bne.n	80015bc <HAL_RCC_OscConfig+0x108>
 800159a:	6863      	ldr	r3, [r4, #4]
 800159c:	03da      	lsls	r2, r3, #15
 800159e:	d40d      	bmi.n	80015bc <HAL_RCC_OscConfig+0x108>
 80015a0:	6823      	ldr	r3, [r4, #0]
 80015a2:	079b      	lsls	r3, r3, #30
 80015a4:	d502      	bpl.n	80015ac <HAL_RCC_OscConfig+0xf8>
 80015a6:	692b      	ldr	r3, [r5, #16]
 80015a8:	2b01      	cmp	r3, #1
 80015aa:	d1af      	bne.n	800150c <HAL_RCC_OscConfig+0x58>
 80015ac:	6823      	ldr	r3, [r4, #0]
 80015ae:	696a      	ldr	r2, [r5, #20]
 80015b0:	f023 03f8 	bic.w	r3, r3, #248	; 0xf8
 80015b4:	ea43 03c2 	orr.w	r3, r3, r2, lsl #3
 80015b8:	6023      	str	r3, [r4, #0]
 80015ba:	e785      	b.n	80014c8 <HAL_RCC_OscConfig+0x14>
 80015bc:	692a      	ldr	r2, [r5, #16]
 80015be:	4b5b      	ldr	r3, [pc, #364]	; (800172c <HAL_RCC_OscConfig+0x278>)
 80015c0:	b16a      	cbz	r2, 80015de <HAL_RCC_OscConfig+0x12a>
 80015c2:	2201      	movs	r2, #1
 80015c4:	601a      	str	r2, [r3, #0]
 80015c6:	f7ff fca3 	bl	8000f10 <HAL_GetTick>
 80015ca:	4606      	mov	r6, r0
 80015cc:	6823      	ldr	r3, [r4, #0]
 80015ce:	079f      	lsls	r7, r3, #30
 80015d0:	d4ec      	bmi.n	80015ac <HAL_RCC_OscConfig+0xf8>
 80015d2:	f7ff fc9d 	bl	8000f10 <HAL_GetTick>
 80015d6:	1b80      	subs	r0, r0, r6
 80015d8:	2802      	cmp	r0, #2
 80015da:	d9f7      	bls.n	80015cc <HAL_RCC_OscConfig+0x118>
 80015dc:	e7ab      	b.n	8001536 <HAL_RCC_OscConfig+0x82>
 80015de:	601a      	str	r2, [r3, #0]
 80015e0:	f7ff fc96 	bl	8000f10 <HAL_GetTick>
 80015e4:	4606      	mov	r6, r0
 80015e6:	6823      	ldr	r3, [r4, #0]
 80015e8:	0798      	lsls	r0, r3, #30
 80015ea:	f57f af6d 	bpl.w	80014c8 <HAL_RCC_OscConfig+0x14>
 80015ee:	f7ff fc8f 	bl	8000f10 <HAL_GetTick>
 80015f2:	1b80      	subs	r0, r0, r6
 80015f4:	2802      	cmp	r0, #2
 80015f6:	d9f6      	bls.n	80015e6 <HAL_RCC_OscConfig+0x132>
 80015f8:	e79d      	b.n	8001536 <HAL_RCC_OscConfig+0x82>
 80015fa:	69aa      	ldr	r2, [r5, #24]
 80015fc:	4e4a      	ldr	r6, [pc, #296]	; (8001728 <HAL_RCC_OscConfig+0x274>)
 80015fe:	4b4b      	ldr	r3, [pc, #300]	; (800172c <HAL_RCC_OscConfig+0x278>)
 8001600:	b1e2      	cbz	r2, 800163c <HAL_RCC_OscConfig+0x188>
 8001602:	2201      	movs	r2, #1
 8001604:	f8c3 2480 	str.w	r2, [r3, #1152]	; 0x480
 8001608:	f7ff fc82 	bl	8000f10 <HAL_GetTick>
 800160c:	4604      	mov	r4, r0
 800160e:	6a73      	ldr	r3, [r6, #36]	; 0x24
 8001610:	079b      	lsls	r3, r3, #30
 8001612:	d50d      	bpl.n	8001630 <HAL_RCC_OscConfig+0x17c>
 8001614:	f44f 52fa 	mov.w	r2, #8000	; 0x1f40
 8001618:	4b45      	ldr	r3, [pc, #276]	; (8001730 <HAL_RCC_OscConfig+0x27c>)
 800161a:	681b      	ldr	r3, [r3, #0]
 800161c:	fbb3 f3f2 	udiv	r3, r3, r2
 8001620:	9301      	str	r3, [sp, #4]
 8001622:	bf00      	nop
 8001624:	9b01      	ldr	r3, [sp, #4]
 8001626:	1e5a      	subs	r2, r3, #1
 8001628:	9201      	str	r2, [sp, #4]
 800162a:	2b00      	cmp	r3, #0
 800162c:	d1f9      	bne.n	8001622 <HAL_RCC_OscConfig+0x16e>
 800162e:	e74f      	b.n	80014d0 <HAL_RCC_OscConfig+0x1c>
 8001630:	f7ff fc6e 	bl	8000f10 <HAL_GetTick>
 8001634:	1b00      	subs	r0, r0, r4
 8001636:	2802      	cmp	r0, #2
 8001638:	d9e9      	bls.n	800160e <HAL_RCC_OscConfig+0x15a>
 800163a:	e77c      	b.n	8001536 <HAL_RCC_OscConfig+0x82>
 800163c:	f8c3 2480 	str.w	r2, [r3, #1152]	; 0x480
 8001640:	f7ff fc66 	bl	8000f10 <HAL_GetTick>
 8001644:	4604      	mov	r4, r0
 8001646:	6a73      	ldr	r3, [r6, #36]	; 0x24
 8001648:	079f      	lsls	r7, r3, #30
 800164a:	f57f af41 	bpl.w	80014d0 <HAL_RCC_OscConfig+0x1c>
 800164e:	f7ff fc5f 	bl	8000f10 <HAL_GetTick>
 8001652:	1b00      	subs	r0, r0, r4
 8001654:	2802      	cmp	r0, #2
 8001656:	d9f6      	bls.n	8001646 <HAL_RCC_OscConfig+0x192>
 8001658:	e76d      	b.n	8001536 <HAL_RCC_OscConfig+0x82>
 800165a:	4c33      	ldr	r4, [pc, #204]	; (8001728 <HAL_RCC_OscConfig+0x274>)
 800165c:	69e3      	ldr	r3, [r4, #28]
 800165e:	00d8      	lsls	r0, r3, #3
 8001660:	d424      	bmi.n	80016ac <HAL_RCC_OscConfig+0x1f8>
 8001662:	2701      	movs	r7, #1
 8001664:	69e3      	ldr	r3, [r4, #28]
 8001666:	f043 5380 	orr.w	r3, r3, #268435456	; 0x10000000
 800166a:	61e3      	str	r3, [r4, #28]
 800166c:	69e3      	ldr	r3, [r4, #28]
 800166e:	f003 5380 	and.w	r3, r3, #268435456	; 0x10000000
 8001672:	9300      	str	r3, [sp, #0]
 8001674:	9b00      	ldr	r3, [sp, #0]
 8001676:	4e2f      	ldr	r6, [pc, #188]	; (8001734 <HAL_RCC_OscConfig+0x280>)
 8001678:	6833      	ldr	r3, [r6, #0]
 800167a:	05d9      	lsls	r1, r3, #23
 800167c:	d518      	bpl.n	80016b0 <HAL_RCC_OscConfig+0x1fc>
 800167e:	68eb      	ldr	r3, [r5, #12]
 8001680:	2b01      	cmp	r3, #1
 8001682:	d126      	bne.n	80016d2 <HAL_RCC_OscConfig+0x21e>
 8001684:	6a23      	ldr	r3, [r4, #32]
 8001686:	f043 0301 	orr.w	r3, r3, #1
 800168a:	6223      	str	r3, [r4, #32]
 800168c:	f7ff fc40 	bl	8000f10 <HAL_GetTick>
 8001690:	f241 3888 	movw	r8, #5000	; 0x1388
 8001694:	4606      	mov	r6, r0
 8001696:	6a23      	ldr	r3, [r4, #32]
 8001698:	079b      	lsls	r3, r3, #30
 800169a:	d53f      	bpl.n	800171c <HAL_RCC_OscConfig+0x268>
 800169c:	2f00      	cmp	r7, #0
 800169e:	f43f af1b 	beq.w	80014d8 <HAL_RCC_OscConfig+0x24>
 80016a2:	69e3      	ldr	r3, [r4, #28]
 80016a4:	f023 5380 	bic.w	r3, r3, #268435456	; 0x10000000
 80016a8:	61e3      	str	r3, [r4, #28]
 80016aa:	e715      	b.n	80014d8 <HAL_RCC_OscConfig+0x24>
 80016ac:	2700      	movs	r7, #0
 80016ae:	e7e2      	b.n	8001676 <HAL_RCC_OscConfig+0x1c2>
 80016b0:	6833      	ldr	r3, [r6, #0]
 80016b2:	f443 7380 	orr.w	r3, r3, #256	; 0x100
 80016b6:	6033      	str	r3, [r6, #0]
 80016b8:	f7ff fc2a 	bl	8000f10 <HAL_GetTick>
 80016bc:	4680      	mov	r8, r0
 80016be:	6833      	ldr	r3, [r6, #0]
 80016c0:	05da      	lsls	r2, r3, #23
 80016c2:	d4dc      	bmi.n	800167e <HAL_RCC_OscConfig+0x1ca>
 80016c4:	f7ff fc24 	bl	8000f10 <HAL_GetTick>
 80016c8:	eba0 0008 	sub.w	r0, r0, r8
 80016cc:	2864      	cmp	r0, #100	; 0x64
 80016ce:	d9f6      	bls.n	80016be <HAL_RCC_OscConfig+0x20a>
 80016d0:	e731      	b.n	8001536 <HAL_RCC_OscConfig+0x82>
 80016d2:	b9ab      	cbnz	r3, 8001700 <HAL_RCC_OscConfig+0x24c>
 80016d4:	6a23      	ldr	r3, [r4, #32]
 80016d6:	f241 3888 	movw	r8, #5000	; 0x1388
 80016da:	f023 0301 	bic.w	r3, r3, #1
 80016de:	6223      	str	r3, [r4, #32]
 80016e0:	6a23      	ldr	r3, [r4, #32]
 80016e2:	f023 0304 	bic.w	r3, r3, #4
 80016e6:	6223      	str	r3, [r4, #32]
 80016e8:	f7ff fc12 	bl	8000f10 <HAL_GetTick>
 80016ec:	4606      	mov	r6, r0
 80016ee:	6a23      	ldr	r3, [r4, #32]
 80016f0:	0798      	lsls	r0, r3, #30
 80016f2:	d5d3      	bpl.n	800169c <HAL_RCC_OscConfig+0x1e8>
 80016f4:	f7ff fc0c 	bl	8000f10 <HAL_GetTick>
 80016f8:	1b80      	subs	r0, r0, r6
 80016fa:	4540      	cmp	r0, r8
 80016fc:	d9f7      	bls.n	80016ee <HAL_RCC_OscConfig+0x23a>
 80016fe:	e71a      	b.n	8001536 <HAL_RCC_OscConfig+0x82>
 8001700:	2b05      	cmp	r3, #5
 8001702:	6a23      	ldr	r3, [r4, #32]
 8001704:	d103      	bne.n	800170e <HAL_RCC_OscConfig+0x25a>
 8001706:	f043 0304 	orr.w	r3, r3, #4
 800170a:	6223      	str	r3, [r4, #32]
 800170c:	e7ba      	b.n	8001684 <HAL_RCC_OscConfig+0x1d0>
 800170e:	f023 0301 	bic.w	r3, r3, #1
 8001712:	6223      	str	r3, [r4, #32]
 8001714:	6a23      	ldr	r3, [r4, #32]
 8001716:	f023 0304 	bic.w	r3, r3, #4
 800171a:	e7b6      	b.n	800168a <HAL_RCC_OscConfig+0x1d6>
 800171c:	f7ff fbf8 	bl	8000f10 <HAL_GetTick>
 8001720:	1b80      	subs	r0, r0, r6
 8001722:	4540      	cmp	r0, r8
 8001724:	d9b7      	bls.n	8001696 <HAL_RCC_OscConfig+0x1e2>
 8001726:	e706      	b.n	8001536 <HAL_RCC_OscConfig+0x82>
 8001728:	40021000 	.word	0x40021000
 800172c:	42420000 	.word	0x42420000
 8001730:	200000a4 	.word	0x200000a4
 8001734:	40007000 	.word	0x40007000
 8001738:	4c2a      	ldr	r4, [pc, #168]	; (80017e4 <HAL_RCC_OscConfig+0x330>)
 800173a:	6863      	ldr	r3, [r4, #4]
 800173c:	f003 030c 	and.w	r3, r3, #12
 8001740:	2b08      	cmp	r3, #8
 8001742:	d03e      	beq.n	80017c2 <HAL_RCC_OscConfig+0x30e>
 8001744:	2200      	movs	r2, #0
 8001746:	4b28      	ldr	r3, [pc, #160]	; (80017e8 <HAL_RCC_OscConfig+0x334>)
 8001748:	2802      	cmp	r0, #2
 800174a:	661a      	str	r2, [r3, #96]	; 0x60
 800174c:	d12c      	bne.n	80017a8 <HAL_RCC_OscConfig+0x2f4>
 800174e:	f7ff fbdf 	bl	8000f10 <HAL_GetTick>
 8001752:	4606      	mov	r6, r0
 8001754:	6823      	ldr	r3, [r4, #0]
 8001756:	0199      	lsls	r1, r3, #6
 8001758:	d420      	bmi.n	800179c <HAL_RCC_OscConfig+0x2e8>
 800175a:	6a2b      	ldr	r3, [r5, #32]
 800175c:	f5b3 3f80 	cmp.w	r3, #65536	; 0x10000
 8001760:	d105      	bne.n	800176e <HAL_RCC_OscConfig+0x2ba>
 8001762:	6862      	ldr	r2, [r4, #4]
 8001764:	68a9      	ldr	r1, [r5, #8]
 8001766:	f422 3200 	bic.w	r2, r2, #131072	; 0x20000
 800176a:	430a      	orrs	r2, r1
 800176c:	6062      	str	r2, [r4, #4]
 800176e:	6a69      	ldr	r1, [r5, #36]	; 0x24
 8001770:	6862      	ldr	r2, [r4, #4]
 8001772:	430b      	orrs	r3, r1
 8001774:	f422 1274 	bic.w	r2, r2, #3997696	; 0x3d0000
 8001778:	4313      	orrs	r3, r2
 800177a:	2201      	movs	r2, #1
 800177c:	6063      	str	r3, [r4, #4]
 800177e:	4b1a      	ldr	r3, [pc, #104]	; (80017e8 <HAL_RCC_OscConfig+0x334>)
 8001780:	661a      	str	r2, [r3, #96]	; 0x60
 8001782:	f7ff fbc5 	bl	8000f10 <HAL_GetTick>
 8001786:	4605      	mov	r5, r0
 8001788:	6823      	ldr	r3, [r4, #0]
 800178a:	019a      	lsls	r2, r3, #6
 800178c:	f53f aea8 	bmi.w	80014e0 <HAL_RCC_OscConfig+0x2c>
 8001790:	f7ff fbbe 	bl	8000f10 <HAL_GetTick>
 8001794:	1b40      	subs	r0, r0, r5
 8001796:	2802      	cmp	r0, #2
 8001798:	d9f6      	bls.n	8001788 <HAL_RCC_OscConfig+0x2d4>
 800179a:	e6cc      	b.n	8001536 <HAL_RCC_OscConfig+0x82>
 800179c:	f7ff fbb8 	bl	8000f10 <HAL_GetTick>
 80017a0:	1b80      	subs	r0, r0, r6
 80017a2:	2802      	cmp	r0, #2
 80017a4:	d9d6      	bls.n	8001754 <HAL_RCC_OscConfig+0x2a0>
 80017a6:	e6c6      	b.n	8001536 <HAL_RCC_OscConfig+0x82>
 80017a8:	f7ff fbb2 	bl	8000f10 <HAL_GetTick>
 80017ac:	4605      	mov	r5, r0
 80017ae:	6823      	ldr	r3, [r4, #0]
 80017b0:	019b      	lsls	r3, r3, #6
 80017b2:	f57f ae95 	bpl.w	80014e0 <HAL_RCC_OscConfig+0x2c>
 80017b6:	f7ff fbab 	bl	8000f10 <HAL_GetTick>
 80017ba:	1b40      	subs	r0, r0, r5
 80017bc:	2802      	cmp	r0, #2
 80017be:	d9f6      	bls.n	80017ae <HAL_RCC_OscConfig+0x2fa>
 80017c0:	e6b9      	b.n	8001536 <HAL_RCC_OscConfig+0x82>
 80017c2:	2801      	cmp	r0, #1
 80017c4:	f43f aeb8 	beq.w	8001538 <HAL_RCC_OscConfig+0x84>
 80017c8:	6863      	ldr	r3, [r4, #4]
 80017ca:	6a2a      	ldr	r2, [r5, #32]
 80017cc:	f403 3180 	and.w	r1, r3, #65536	; 0x10000
 80017d0:	4291      	cmp	r1, r2
 80017d2:	f47f ae9b 	bne.w	800150c <HAL_RCC_OscConfig+0x58>
 80017d6:	6a6a      	ldr	r2, [r5, #36]	; 0x24
 80017d8:	f403 1370 	and.w	r3, r3, #3932160	; 0x3c0000
 80017dc:	4293      	cmp	r3, r2
 80017de:	f43f ae7f 	beq.w	80014e0 <HAL_RCC_OscConfig+0x2c>
 80017e2:	e693      	b.n	800150c <HAL_RCC_OscConfig+0x58>
 80017e4:	40021000 	.word	0x40021000
 80017e8:	42420000 	.word	0x42420000

080017ec <HAL_RCC_GetSysClockFreq>:
 80017ec:	4a0d      	ldr	r2, [pc, #52]	; (8001824 <HAL_RCC_GetSysClockFreq+0x38>)
 80017ee:	6853      	ldr	r3, [r2, #4]
 80017f0:	f003 010c 	and.w	r1, r3, #12
 80017f4:	2908      	cmp	r1, #8
 80017f6:	d112      	bne.n	800181e <HAL_RCC_GetSysClockFreq+0x32>
 80017f8:	480b      	ldr	r0, [pc, #44]	; (8001828 <HAL_RCC_GetSysClockFreq+0x3c>)
 80017fa:	f3c3 4183 	ubfx	r1, r3, #18, #4
 80017fe:	03db      	lsls	r3, r3, #15
 8001800:	5c40      	ldrb	r0, [r0, r1]
 8001802:	d509      	bpl.n	8001818 <HAL_RCC_GetSysClockFreq+0x2c>
 8001804:	6853      	ldr	r3, [r2, #4]
 8001806:	4a09      	ldr	r2, [pc, #36]	; (800182c <HAL_RCC_GetSysClockFreq+0x40>)
 8001808:	f3c3 4340 	ubfx	r3, r3, #17, #1
 800180c:	4350      	muls	r0, r2
 800180e:	4a08      	ldr	r2, [pc, #32]	; (8001830 <HAL_RCC_GetSysClockFreq+0x44>)
 8001810:	5cd3      	ldrb	r3, [r2, r3]
 8001812:	fbb0 f0f3 	udiv	r0, r0, r3
 8001816:	4770      	bx	lr
 8001818:	4b06      	ldr	r3, [pc, #24]	; (8001834 <HAL_RCC_GetSysClockFreq+0x48>)
 800181a:	4358      	muls	r0, r3
 800181c:	4770      	bx	lr
 800181e:	4803      	ldr	r0, [pc, #12]	; (800182c <HAL_RCC_GetSysClockFreq+0x40>)
 8001820:	4770      	bx	lr
 8001822:	bf00      	nop
 8001824:	40021000 	.word	0x40021000
 8001828:	080049e3 	.word	0x080049e3
 800182c:	007a1200 	.word	0x007a1200
 8001830:	080049f3 	.word	0x080049f3
 8001834:	003d0900 	.word	0x003d0900

08001838 <HAL_RCC_ClockConfig>:
 8001838:	e92d 41f0 	stmdb	sp!, {r4, r5, r6, r7, r8, lr}
 800183c:	460d      	mov	r5, r1
 800183e:	4604      	mov	r4, r0
 8001840:	b910      	cbnz	r0, 8001848 <HAL_RCC_ClockConfig+0x10>
 8001842:	2001      	movs	r0, #1
 8001844:	e8bd 81f0 	ldmia.w	sp!, {r4, r5, r6, r7, r8, pc}
 8001848:	4a44      	ldr	r2, [pc, #272]	; (800195c <HAL_RCC_ClockConfig+0x124>)
 800184a:	6813      	ldr	r3, [r2, #0]
 800184c:	f003 0307 	and.w	r3, r3, #7
 8001850:	428b      	cmp	r3, r1
 8001852:	d328      	bcc.n	80018a6 <HAL_RCC_ClockConfig+0x6e>
 8001854:	6821      	ldr	r1, [r4, #0]
 8001856:	078e      	lsls	r6, r1, #30
 8001858:	d430      	bmi.n	80018bc <HAL_RCC_ClockConfig+0x84>
 800185a:	07ca      	lsls	r2, r1, #31
 800185c:	d443      	bmi.n	80018e6 <HAL_RCC_ClockConfig+0xae>
 800185e:	4a3f      	ldr	r2, [pc, #252]	; (800195c <HAL_RCC_ClockConfig+0x124>)
 8001860:	6813      	ldr	r3, [r2, #0]
 8001862:	f003 0307 	and.w	r3, r3, #7
 8001866:	42ab      	cmp	r3, r5
 8001868:	d865      	bhi.n	8001936 <HAL_RCC_ClockConfig+0xfe>
 800186a:	6822      	ldr	r2, [r4, #0]
 800186c:	4d3c      	ldr	r5, [pc, #240]	; (8001960 <HAL_RCC_ClockConfig+0x128>)
 800186e:	f012 0f04 	tst.w	r2, #4
 8001872:	d16c      	bne.n	800194e <HAL_RCC_ClockConfig+0x116>
 8001874:	0713      	lsls	r3, r2, #28
 8001876:	d506      	bpl.n	8001886 <HAL_RCC_ClockConfig+0x4e>
 8001878:	686b      	ldr	r3, [r5, #4]
 800187a:	6922      	ldr	r2, [r4, #16]
 800187c:	f423 5360 	bic.w	r3, r3, #14336	; 0x3800
 8001880:	ea43 03c2 	orr.w	r3, r3, r2, lsl #3
 8001884:	606b      	str	r3, [r5, #4]
 8001886:	f7ff ffb1 	bl	80017ec <HAL_RCC_GetSysClockFreq>
 800188a:	686b      	ldr	r3, [r5, #4]
 800188c:	4a35      	ldr	r2, [pc, #212]	; (8001964 <HAL_RCC_ClockConfig+0x12c>)
 800188e:	f3c3 1303 	ubfx	r3, r3, #4, #4
 8001892:	5cd3      	ldrb	r3, [r2, r3]
 8001894:	40d8      	lsrs	r0, r3
 8001896:	4b34      	ldr	r3, [pc, #208]	; (8001968 <HAL_RCC_ClockConfig+0x130>)
 8001898:	6018      	str	r0, [r3, #0]
 800189a:	4b34      	ldr	r3, [pc, #208]	; (800196c <HAL_RCC_ClockConfig+0x134>)
 800189c:	6818      	ldr	r0, [r3, #0]
 800189e:	f7ff faf5 	bl	8000e8c <HAL_InitTick>
 80018a2:	2000      	movs	r0, #0
 80018a4:	e7ce      	b.n	8001844 <HAL_RCC_ClockConfig+0xc>
 80018a6:	6813      	ldr	r3, [r2, #0]
 80018a8:	f023 0307 	bic.w	r3, r3, #7
 80018ac:	430b      	orrs	r3, r1
 80018ae:	6013      	str	r3, [r2, #0]
 80018b0:	6813      	ldr	r3, [r2, #0]
 80018b2:	f003 0307 	and.w	r3, r3, #7
 80018b6:	428b      	cmp	r3, r1
 80018b8:	d1c3      	bne.n	8001842 <HAL_RCC_ClockConfig+0xa>
 80018ba:	e7cb      	b.n	8001854 <HAL_RCC_ClockConfig+0x1c>
 80018bc:	4b28      	ldr	r3, [pc, #160]	; (8001960 <HAL_RCC_ClockConfig+0x128>)
 80018be:	f011 0f04 	tst.w	r1, #4
 80018c2:	bf1e      	ittt	ne
 80018c4:	685a      	ldrne	r2, [r3, #4]
 80018c6:	f442 62e0 	orrne.w	r2, r2, #1792	; 0x700
 80018ca:	605a      	strne	r2, [r3, #4]
 80018cc:	0708      	lsls	r0, r1, #28
 80018ce:	bf42      	ittt	mi
 80018d0:	685a      	ldrmi	r2, [r3, #4]
 80018d2:	f442 5260 	orrmi.w	r2, r2, #14336	; 0x3800
 80018d6:	605a      	strmi	r2, [r3, #4]
 80018d8:	685a      	ldr	r2, [r3, #4]
 80018da:	68a0      	ldr	r0, [r4, #8]
 80018dc:	f022 02f0 	bic.w	r2, r2, #240	; 0xf0
 80018e0:	4302      	orrs	r2, r0
 80018e2:	605a      	str	r2, [r3, #4]
 80018e4:	e7b9      	b.n	800185a <HAL_RCC_ClockConfig+0x22>
 80018e6:	6862      	ldr	r2, [r4, #4]
 80018e8:	4e1d      	ldr	r6, [pc, #116]	; (8001960 <HAL_RCC_ClockConfig+0x128>)
 80018ea:	2a01      	cmp	r2, #1
 80018ec:	6833      	ldr	r3, [r6, #0]
 80018ee:	d11a      	bne.n	8001926 <HAL_RCC_ClockConfig+0xee>
 80018f0:	f413 3f00 	tst.w	r3, #131072	; 0x20000
 80018f4:	d0a5      	beq.n	8001842 <HAL_RCC_ClockConfig+0xa>
 80018f6:	6873      	ldr	r3, [r6, #4]
 80018f8:	f241 3888 	movw	r8, #5000	; 0x1388
 80018fc:	f023 0303 	bic.w	r3, r3, #3
 8001900:	4313      	orrs	r3, r2
 8001902:	6073      	str	r3, [r6, #4]
 8001904:	f7ff fb04 	bl	8000f10 <HAL_GetTick>
 8001908:	4607      	mov	r7, r0
 800190a:	6873      	ldr	r3, [r6, #4]
 800190c:	6862      	ldr	r2, [r4, #4]
 800190e:	f003 030c 	and.w	r3, r3, #12
 8001912:	ebb3 0f82 	cmp.w	r3, r2, lsl #2
 8001916:	d0a2      	beq.n	800185e <HAL_RCC_ClockConfig+0x26>
 8001918:	f7ff fafa 	bl	8000f10 <HAL_GetTick>
 800191c:	1bc0      	subs	r0, r0, r7
 800191e:	4540      	cmp	r0, r8
 8001920:	d9f3      	bls.n	800190a <HAL_RCC_ClockConfig+0xd2>
 8001922:	2003      	movs	r0, #3
 8001924:	e78e      	b.n	8001844 <HAL_RCC_ClockConfig+0xc>
 8001926:	2a02      	cmp	r2, #2
 8001928:	d102      	bne.n	8001930 <HAL_RCC_ClockConfig+0xf8>
 800192a:	f013 7f00 	tst.w	r3, #33554432	; 0x2000000
 800192e:	e7e1      	b.n	80018f4 <HAL_RCC_ClockConfig+0xbc>
 8001930:	f013 0f02 	tst.w	r3, #2
 8001934:	e7de      	b.n	80018f4 <HAL_RCC_ClockConfig+0xbc>
 8001936:	6813      	ldr	r3, [r2, #0]
 8001938:	f023 0307 	bic.w	r3, r3, #7
 800193c:	432b      	orrs	r3, r5
 800193e:	6013      	str	r3, [r2, #0]
 8001940:	6813      	ldr	r3, [r2, #0]
 8001942:	f003 0307 	and.w	r3, r3, #7
 8001946:	42ab      	cmp	r3, r5
 8001948:	f47f af7b 	bne.w	8001842 <HAL_RCC_ClockConfig+0xa>
 800194c:	e78d      	b.n	800186a <HAL_RCC_ClockConfig+0x32>
 800194e:	686b      	ldr	r3, [r5, #4]
 8001950:	68e1      	ldr	r1, [r4, #12]
 8001952:	f423 63e0 	bic.w	r3, r3, #1792	; 0x700
 8001956:	430b      	orrs	r3, r1
 8001958:	606b      	str	r3, [r5, #4]
 800195a:	e78b      	b.n	8001874 <HAL_RCC_ClockConfig+0x3c>
 800195c:	40022000 	.word	0x40022000
 8001960:	40021000 	.word	0x40021000
 8001964:	080049c5 	.word	0x080049c5
 8001968:	200000a4 	.word	0x200000a4
 800196c:	200000ac 	.word	0x200000ac

08001970 <HAL_RCC_GetPCLK1Freq>:
 8001970:	4b04      	ldr	r3, [pc, #16]	; (8001984 <HAL_RCC_GetPCLK1Freq+0x14>)
 8001972:	4a05      	ldr	r2, [pc, #20]	; (8001988 <HAL_RCC_GetPCLK1Freq+0x18>)
 8001974:	685b      	ldr	r3, [r3, #4]
 8001976:	f3c3 2302 	ubfx	r3, r3, #8, #3
 800197a:	5cd3      	ldrb	r3, [r2, r3]
 800197c:	4a03      	ldr	r2, [pc, #12]	; (800198c <HAL_RCC_GetPCLK1Freq+0x1c>)
 800197e:	6810      	ldr	r0, [r2, #0]
 8001980:	40d8      	lsrs	r0, r3
 8001982:	4770      	bx	lr
 8001984:	40021000 	.word	0x40021000
 8001988:	080049d5 	.word	0x080049d5
 800198c:	200000a4 	.word	0x200000a4

08001990 <HAL_RCC_GetPCLK2Freq>:
 8001990:	4b04      	ldr	r3, [pc, #16]	; (80019a4 <HAL_RCC_GetPCLK2Freq+0x14>)
 8001992:	4a05      	ldr	r2, [pc, #20]	; (80019a8 <HAL_RCC_GetPCLK2Freq+0x18>)
 8001994:	685b      	ldr	r3, [r3, #4]
 8001996:	f3c3 23c2 	ubfx	r3, r3, #11, #3
 800199a:	5cd3      	ldrb	r3, [r2, r3]
 800199c:	4a03      	ldr	r2, [pc, #12]	; (80019ac <HAL_RCC_GetPCLK2Freq+0x1c>)
 800199e:	6810      	ldr	r0, [r2, #0]
 80019a0:	40d8      	lsrs	r0, r3
 80019a2:	4770      	bx	lr
 80019a4:	40021000 	.word	0x40021000
 80019a8:	080049d5 	.word	0x080049d5
 80019ac:	200000a4 	.word	0x200000a4

080019b0 <HAL_RCCEx_PeriphCLKConfig>:
 80019b0:	6803      	ldr	r3, [r0, #0]
 80019b2:	e92d 41f3 	stmdb	sp!, {r0, r1, r4, r5, r6, r7, r8, lr}
 80019b6:	07d9      	lsls	r1, r3, #31
 80019b8:	4605      	mov	r5, r0
 80019ba:	d520      	bpl.n	80019fe <HAL_RCCEx_PeriphCLKConfig+0x4e>
 80019bc:	4c36      	ldr	r4, [pc, #216]	; (8001a98 <HAL_RCCEx_PeriphCLKConfig+0xe8>)
 80019be:	69e3      	ldr	r3, [r4, #28]
 80019c0:	00da      	lsls	r2, r3, #3
 80019c2:	d432      	bmi.n	8001a2a <HAL_RCCEx_PeriphCLKConfig+0x7a>
 80019c4:	2601      	movs	r6, #1
 80019c6:	69e3      	ldr	r3, [r4, #28]
 80019c8:	f043 5380 	orr.w	r3, r3, #268435456	; 0x10000000
 80019cc:	61e3      	str	r3, [r4, #28]
 80019ce:	69e3      	ldr	r3, [r4, #28]
 80019d0:	f003 5380 	and.w	r3, r3, #268435456	; 0x10000000
 80019d4:	9301      	str	r3, [sp, #4]
 80019d6:	9b01      	ldr	r3, [sp, #4]
 80019d8:	4f30      	ldr	r7, [pc, #192]	; (8001a9c <HAL_RCCEx_PeriphCLKConfig+0xec>)
 80019da:	683b      	ldr	r3, [r7, #0]
 80019dc:	05db      	lsls	r3, r3, #23
 80019de:	d526      	bpl.n	8001a2e <HAL_RCCEx_PeriphCLKConfig+0x7e>
 80019e0:	6a23      	ldr	r3, [r4, #32]
 80019e2:	f413 7340 	ands.w	r3, r3, #768	; 0x300
 80019e6:	d136      	bne.n	8001a56 <HAL_RCCEx_PeriphCLKConfig+0xa6>
 80019e8:	6a23      	ldr	r3, [r4, #32]
 80019ea:	686a      	ldr	r2, [r5, #4]
 80019ec:	f423 7340 	bic.w	r3, r3, #768	; 0x300
 80019f0:	4313      	orrs	r3, r2
 80019f2:	6223      	str	r3, [r4, #32]
 80019f4:	b11e      	cbz	r6, 80019fe <HAL_RCCEx_PeriphCLKConfig+0x4e>
 80019f6:	69e3      	ldr	r3, [r4, #28]
 80019f8:	f023 5380 	bic.w	r3, r3, #268435456	; 0x10000000
 80019fc:	61e3      	str	r3, [r4, #28]
 80019fe:	6828      	ldr	r0, [r5, #0]
 8001a00:	0783      	lsls	r3, r0, #30
 8001a02:	d506      	bpl.n	8001a12 <HAL_RCCEx_PeriphCLKConfig+0x62>
 8001a04:	4924      	ldr	r1, [pc, #144]	; (8001a98 <HAL_RCCEx_PeriphCLKConfig+0xe8>)
 8001a06:	68ab      	ldr	r3, [r5, #8]
 8001a08:	684a      	ldr	r2, [r1, #4]
 8001a0a:	f422 4240 	bic.w	r2, r2, #49152	; 0xc000
 8001a0e:	431a      	orrs	r2, r3
 8001a10:	604a      	str	r2, [r1, #4]
 8001a12:	f010 0010 	ands.w	r0, r0, #16
 8001a16:	d01b      	beq.n	8001a50 <HAL_RCCEx_PeriphCLKConfig+0xa0>
 8001a18:	4a1f      	ldr	r2, [pc, #124]	; (8001a98 <HAL_RCCEx_PeriphCLKConfig+0xe8>)
 8001a1a:	68e9      	ldr	r1, [r5, #12]
 8001a1c:	6853      	ldr	r3, [r2, #4]
 8001a1e:	2000      	movs	r0, #0
 8001a20:	f423 0380 	bic.w	r3, r3, #4194304	; 0x400000
 8001a24:	430b      	orrs	r3, r1
 8001a26:	6053      	str	r3, [r2, #4]
 8001a28:	e012      	b.n	8001a50 <HAL_RCCEx_PeriphCLKConfig+0xa0>
 8001a2a:	2600      	movs	r6, #0
 8001a2c:	e7d4      	b.n	80019d8 <HAL_RCCEx_PeriphCLKConfig+0x28>
 8001a2e:	683b      	ldr	r3, [r7, #0]
 8001a30:	f443 7380 	orr.w	r3, r3, #256	; 0x100
 8001a34:	603b      	str	r3, [r7, #0]
 8001a36:	f7ff fa6b 	bl	8000f10 <HAL_GetTick>
 8001a3a:	4680      	mov	r8, r0
 8001a3c:	683b      	ldr	r3, [r7, #0]
 8001a3e:	05d8      	lsls	r0, r3, #23
 8001a40:	d4ce      	bmi.n	80019e0 <HAL_RCCEx_PeriphCLKConfig+0x30>
 8001a42:	f7ff fa65 	bl	8000f10 <HAL_GetTick>
 8001a46:	eba0 0008 	sub.w	r0, r0, r8
 8001a4a:	2864      	cmp	r0, #100	; 0x64
 8001a4c:	d9f6      	bls.n	8001a3c <HAL_RCCEx_PeriphCLKConfig+0x8c>
 8001a4e:	2003      	movs	r0, #3
 8001a50:	b002      	add	sp, #8
 8001a52:	e8bd 81f0 	ldmia.w	sp!, {r4, r5, r6, r7, r8, pc}
 8001a56:	686a      	ldr	r2, [r5, #4]
 8001a58:	f402 7240 	and.w	r2, r2, #768	; 0x300
 8001a5c:	429a      	cmp	r2, r3
 8001a5e:	d0c3      	beq.n	80019e8 <HAL_RCCEx_PeriphCLKConfig+0x38>
 8001a60:	2001      	movs	r0, #1
 8001a62:	4a0f      	ldr	r2, [pc, #60]	; (8001aa0 <HAL_RCCEx_PeriphCLKConfig+0xf0>)
 8001a64:	6a23      	ldr	r3, [r4, #32]
 8001a66:	f8c2 0440 	str.w	r0, [r2, #1088]	; 0x440
 8001a6a:	2000      	movs	r0, #0
 8001a6c:	f423 7140 	bic.w	r1, r3, #768	; 0x300
 8001a70:	f8c2 0440 	str.w	r0, [r2, #1088]	; 0x440
 8001a74:	6221      	str	r1, [r4, #32]
 8001a76:	07d9      	lsls	r1, r3, #31
 8001a78:	d5b6      	bpl.n	80019e8 <HAL_RCCEx_PeriphCLKConfig+0x38>
 8001a7a:	f7ff fa49 	bl	8000f10 <HAL_GetTick>
 8001a7e:	f241 3888 	movw	r8, #5000	; 0x1388
 8001a82:	4607      	mov	r7, r0
 8001a84:	6a23      	ldr	r3, [r4, #32]
 8001a86:	079a      	lsls	r2, r3, #30
 8001a88:	d4ae      	bmi.n	80019e8 <HAL_RCCEx_PeriphCLKConfig+0x38>
 8001a8a:	f7ff fa41 	bl	8000f10 <HAL_GetTick>
 8001a8e:	1bc0      	subs	r0, r0, r7
 8001a90:	4540      	cmp	r0, r8
 8001a92:	d9f7      	bls.n	8001a84 <HAL_RCCEx_PeriphCLKConfig+0xd4>
 8001a94:	e7db      	b.n	8001a4e <HAL_RCCEx_PeriphCLKConfig+0x9e>
 8001a96:	bf00      	nop
 8001a98:	40021000 	.word	0x40021000
 8001a9c:	40007000 	.word	0x40007000
 8001aa0:	42420000 	.word	0x42420000

08001aa4 <HAL_RCCEx_GetPeriphCLKFreq>:
 8001aa4:	2802      	cmp	r0, #2
 8001aa6:	b508      	push	{r3, lr}
 8001aa8:	d044      	beq.n	8001b34 <HAL_RCCEx_GetPeriphCLKFreq+0x90>
 8001aaa:	2810      	cmp	r0, #16
 8001aac:	d003      	beq.n	8001ab6 <HAL_RCCEx_GetPeriphCLKFreq+0x12>
 8001aae:	2801      	cmp	r0, #1
 8001ab0:	d022      	beq.n	8001af8 <HAL_RCCEx_GetPeriphCLKFreq+0x54>
 8001ab2:	2000      	movs	r0, #0
 8001ab4:	e034      	b.n	8001b20 <HAL_RCCEx_GetPeriphCLKFreq+0x7c>
 8001ab6:	4b25      	ldr	r3, [pc, #148]	; (8001b4c <HAL_RCCEx_GetPeriphCLKFreq+0xa8>)
 8001ab8:	685a      	ldr	r2, [r3, #4]
 8001aba:	6818      	ldr	r0, [r3, #0]
 8001abc:	f010 7080 	ands.w	r0, r0, #16777216	; 0x1000000
 8001ac0:	d02e      	beq.n	8001b20 <HAL_RCCEx_GetPeriphCLKFreq+0x7c>
 8001ac2:	f3c2 4183 	ubfx	r1, r2, #18, #4
 8001ac6:	4822      	ldr	r0, [pc, #136]	; (8001b50 <HAL_RCCEx_GetPeriphCLKFreq+0xac>)
 8001ac8:	03d2      	lsls	r2, r2, #15
 8001aca:	bf48      	it	mi
 8001acc:	685a      	ldrmi	r2, [r3, #4]
 8001ace:	5c40      	ldrb	r0, [r0, r1]
 8001ad0:	bf41      	itttt	mi
 8001ad2:	4920      	ldrmi	r1, [pc, #128]	; (8001b54 <HAL_RCCEx_GetPeriphCLKFreq+0xb0>)
 8001ad4:	f3c2 4240 	ubfxmi	r2, r2, #17, #1
 8001ad8:	5c89      	ldrbmi	r1, [r1, r2]
 8001ada:	4a1f      	ldrmi	r2, [pc, #124]	; (8001b58 <HAL_RCCEx_GetPeriphCLKFreq+0xb4>)
 8001adc:	685b      	ldr	r3, [r3, #4]
 8001ade:	bf4c      	ite	mi
 8001ae0:	fbb2 f2f1 	udivmi	r2, r2, r1
 8001ae4:	4a1d      	ldrpl	r2, [pc, #116]	; (8001b5c <HAL_RCCEx_GetPeriphCLKFreq+0xb8>)
 8001ae6:	025b      	lsls	r3, r3, #9
 8001ae8:	fb02 f000 	mul.w	r0, r2, r0
 8001aec:	d418      	bmi.n	8001b20 <HAL_RCCEx_GetPeriphCLKFreq+0x7c>
 8001aee:	2303      	movs	r3, #3
 8001af0:	0040      	lsls	r0, r0, #1
 8001af2:	fbb0 f0f3 	udiv	r0, r0, r3
 8001af6:	e013      	b.n	8001b20 <HAL_RCCEx_GetPeriphCLKFreq+0x7c>
 8001af8:	f240 3102 	movw	r1, #770	; 0x302
 8001afc:	4a13      	ldr	r2, [pc, #76]	; (8001b4c <HAL_RCCEx_GetPeriphCLKFreq+0xa8>)
 8001afe:	6a13      	ldr	r3, [r2, #32]
 8001b00:	4019      	ands	r1, r3
 8001b02:	f5b1 7f81 	cmp.w	r1, #258	; 0x102
 8001b06:	d01e      	beq.n	8001b46 <HAL_RCCEx_GetPeriphCLKFreq+0xa2>
 8001b08:	f403 7340 	and.w	r3, r3, #768	; 0x300
 8001b0c:	f5b3 7f00 	cmp.w	r3, #512	; 0x200
 8001b10:	d107      	bne.n	8001b22 <HAL_RCCEx_GetPeriphCLKFreq+0x7e>
 8001b12:	f649 4340 	movw	r3, #40000	; 0x9c40
 8001b16:	6a50      	ldr	r0, [r2, #36]	; 0x24
 8001b18:	f010 0002 	ands.w	r0, r0, #2
 8001b1c:	bf18      	it	ne
 8001b1e:	4618      	movne	r0, r3
 8001b20:	bd08      	pop	{r3, pc}
 8001b22:	f5b3 7f40 	cmp.w	r3, #768	; 0x300
 8001b26:	d1c4      	bne.n	8001ab2 <HAL_RCCEx_GetPeriphCLKFreq+0xe>
 8001b28:	6810      	ldr	r0, [r2, #0]
 8001b2a:	f24f 4324 	movw	r3, #62500	; 0xf424
 8001b2e:	f410 3000 	ands.w	r0, r0, #131072	; 0x20000
 8001b32:	e7f3      	b.n	8001b1c <HAL_RCCEx_GetPeriphCLKFreq+0x78>
 8001b34:	f7ff ff2c 	bl	8001990 <HAL_RCC_GetPCLK2Freq>
 8001b38:	4b04      	ldr	r3, [pc, #16]	; (8001b4c <HAL_RCCEx_GetPeriphCLKFreq+0xa8>)
 8001b3a:	685b      	ldr	r3, [r3, #4]
 8001b3c:	f3c3 3381 	ubfx	r3, r3, #14, #2
 8001b40:	3301      	adds	r3, #1
 8001b42:	005b      	lsls	r3, r3, #1
 8001b44:	e7d5      	b.n	8001af2 <HAL_RCCEx_GetPeriphCLKFreq+0x4e>
 8001b46:	f44f 4000 	mov.w	r0, #32768	; 0x8000
 8001b4a:	e7e9      	b.n	8001b20 <HAL_RCCEx_GetPeriphCLKFreq+0x7c>
 8001b4c:	40021000 	.word	0x40021000
 8001b50:	080049f5 	.word	0x080049f5
 8001b54:	08004a05 	.word	0x08004a05
 8001b58:	007a1200 	.word	0x007a1200
 8001b5c:	003d0900 	.word	0x003d0900

08001b60 <RTC_ReadTimeCounter>:
 8001b60:	6803      	ldr	r3, [r0, #0]
 8001b62:	b530      	push	{r4, r5, lr}
 8001b64:	699a      	ldr	r2, [r3, #24]
 8001b66:	69d8      	ldr	r0, [r3, #28]
 8001b68:	6999      	ldr	r1, [r3, #24]
 8001b6a:	b295      	uxth	r5, r2
 8001b6c:	b28c      	uxth	r4, r1
 8001b6e:	42a5      	cmp	r5, r4
 8001b70:	bf17      	itett	ne
 8001b72:	69d8      	ldrne	r0, [r3, #28]
 8001b74:	b280      	uxtheq	r0, r0
 8001b76:	b280      	uxthne	r0, r0
 8001b78:	ea40 4001 	orrne.w	r0, r0, r1, lsl #16
 8001b7c:	bf08      	it	eq
 8001b7e:	ea40 4002 	orreq.w	r0, r0, r2, lsl #16
 8001b82:	bd30      	pop	{r4, r5, pc}

08001b84 <RTC_ReadAlarmCounter>:
 8001b84:	6803      	ldr	r3, [r0, #0]
 8001b86:	6a18      	ldr	r0, [r3, #32]
 8001b88:	6a5b      	ldr	r3, [r3, #36]	; 0x24
 8001b8a:	b29b      	uxth	r3, r3
 8001b8c:	ea43 4000 	orr.w	r0, r3, r0, lsl #16
 8001b90:	4770      	bx	lr

08001b92 <RTC_ByteToBcd2>:
 8001b92:	2300      	movs	r3, #0
 8001b94:	2809      	cmp	r0, #9
 8001b96:	d803      	bhi.n	8001ba0 <RTC_ByteToBcd2+0xe>
 8001b98:	ea40 1003 	orr.w	r0, r0, r3, lsl #4
 8001b9c:	b2c0      	uxtb	r0, r0
 8001b9e:	4770      	bx	lr
 8001ba0:	380a      	subs	r0, #10
 8001ba2:	3301      	adds	r3, #1
 8001ba4:	b2c0      	uxtb	r0, r0
 8001ba6:	e7f5      	b.n	8001b94 <RTC_ByteToBcd2+0x2>

08001ba8 <RTC_Bcd2ToByte>:
 8001ba8:	220a      	movs	r2, #10
 8001baa:	0903      	lsrs	r3, r0, #4
 8001bac:	f000 000f 	and.w	r0, r0, #15
 8001bb0:	fb02 0003 	mla	r0, r2, r3, r0
 8001bb4:	b2c0      	uxtb	r0, r0
 8001bb6:	4770      	bx	lr

08001bb8 <RTC_WeekDayNum>:
 8001bb8:	b530      	push	{r4, r5, lr}
 8001bba:	4603      	mov	r3, r0
 8001bbc:	f500 64fa 	add.w	r4, r0, #2000	; 0x7d0
 8001bc0:	2017      	movs	r0, #23
 8001bc2:	2509      	movs	r5, #9
 8001bc4:	4348      	muls	r0, r1
 8001bc6:	2902      	cmp	r1, #2
 8001bc8:	fbb0 f5f5 	udiv	r5, r0, r5
 8001bcc:	d817      	bhi.n	8001bfe <RTC_WeekDayNum+0x46>
 8001bce:	3204      	adds	r2, #4
 8001bd0:	1910      	adds	r0, r2, r4
 8001bd2:	f44f 72c8 	mov.w	r2, #400	; 0x190
 8001bd6:	f203 73cf 	addw	r3, r3, #1999	; 0x7cf
 8001bda:	fbb3 f2f2 	udiv	r2, r3, r2
 8001bde:	4428      	add	r0, r5
 8001be0:	eb00 0093 	add.w	r0, r0, r3, lsr #2
 8001be4:	4410      	add	r0, r2
 8001be6:	2264      	movs	r2, #100	; 0x64
 8001be8:	fbb3 f3f2 	udiv	r3, r3, r2
 8001bec:	1ac0      	subs	r0, r0, r3
 8001bee:	2307      	movs	r3, #7
 8001bf0:	fbb0 f3f3 	udiv	r3, r0, r3
 8001bf4:	ebc3 03c3 	rsb	r3, r3, r3, lsl #3
 8001bf8:	1ac0      	subs	r0, r0, r3
 8001bfa:	b2c0      	uxtb	r0, r0
 8001bfc:	bd30      	pop	{r4, r5, pc}
 8001bfe:	f44f 73c8 	mov.w	r3, #400	; 0x190
 8001c02:	fbb4 f3f3 	udiv	r3, r4, r3
 8001c06:	1c90      	adds	r0, r2, #2
 8001c08:	4420      	add	r0, r4
 8001c0a:	4428      	add	r0, r5
 8001c0c:	eb00 0094 	add.w	r0, r0, r4, lsr #2
 8001c10:	4418      	add	r0, r3
 8001c12:	2364      	movs	r3, #100	; 0x64
 8001c14:	fbb4 f4f3 	udiv	r4, r4, r3
 8001c18:	1b00      	subs	r0, r0, r4
 8001c1a:	e7e8      	b.n	8001bee <RTC_WeekDayNum+0x36>

08001c1c <RTC_EnterInitMode>:
 8001c1c:	b538      	push	{r3, r4, r5, lr}
 8001c1e:	4604      	mov	r4, r0
 8001c20:	f7ff f976 	bl	8000f10 <HAL_GetTick>
 8001c24:	4605      	mov	r5, r0
 8001c26:	6823      	ldr	r3, [r4, #0]
 8001c28:	685a      	ldr	r2, [r3, #4]
 8001c2a:	0692      	lsls	r2, r2, #26
 8001c2c:	d505      	bpl.n	8001c3a <RTC_EnterInitMode+0x1e>
 8001c2e:	2000      	movs	r0, #0
 8001c30:	685a      	ldr	r2, [r3, #4]
 8001c32:	f042 0210 	orr.w	r2, r2, #16
 8001c36:	605a      	str	r2, [r3, #4]
 8001c38:	bd38      	pop	{r3, r4, r5, pc}
 8001c3a:	f7ff f969 	bl	8000f10 <HAL_GetTick>
 8001c3e:	1b40      	subs	r0, r0, r5
 8001c40:	f5b0 7f7a 	cmp.w	r0, #1000	; 0x3e8
 8001c44:	d9ef      	bls.n	8001c26 <RTC_EnterInitMode+0xa>
 8001c46:	2003      	movs	r0, #3
 8001c48:	e7f6      	b.n	8001c38 <RTC_EnterInitMode+0x1c>

08001c4a <RTC_ExitInitMode>:
 8001c4a:	6802      	ldr	r2, [r0, #0]
 8001c4c:	b538      	push	{r3, r4, r5, lr}
 8001c4e:	6853      	ldr	r3, [r2, #4]
 8001c50:	4604      	mov	r4, r0
 8001c52:	f023 0310 	bic.w	r3, r3, #16
 8001c56:	6053      	str	r3, [r2, #4]
 8001c58:	f7ff f95a 	bl	8000f10 <HAL_GetTick>
 8001c5c:	4605      	mov	r5, r0
 8001c5e:	6823      	ldr	r3, [r4, #0]
 8001c60:	685b      	ldr	r3, [r3, #4]
 8001c62:	069b      	lsls	r3, r3, #26
 8001c64:	d501      	bpl.n	8001c6a <RTC_ExitInitMode+0x20>
 8001c66:	2000      	movs	r0, #0
 8001c68:	bd38      	pop	{r3, r4, r5, pc}
 8001c6a:	f7ff f951 	bl	8000f10 <HAL_GetTick>
 8001c6e:	1b40      	subs	r0, r0, r5
 8001c70:	f5b0 7f7a 	cmp.w	r0, #1000	; 0x3e8
 8001c74:	d9f3      	bls.n	8001c5e <RTC_ExitInitMode+0x14>
 8001c76:	2003      	movs	r0, #3
 8001c78:	e7f6      	b.n	8001c68 <RTC_ExitInitMode+0x1e>

08001c7a <RTC_WriteTimeCounter>:
 8001c7a:	b538      	push	{r3, r4, r5, lr}
 8001c7c:	4605      	mov	r5, r0
 8001c7e:	460c      	mov	r4, r1
 8001c80:	f7ff ffcc 	bl	8001c1c <RTC_EnterInitMode>
 8001c84:	b958      	cbnz	r0, 8001c9e <RTC_WriteTimeCounter+0x24>
 8001c86:	682b      	ldr	r3, [r5, #0]
 8001c88:	0c22      	lsrs	r2, r4, #16
 8001c8a:	b2a4      	uxth	r4, r4
 8001c8c:	619a      	str	r2, [r3, #24]
 8001c8e:	4628      	mov	r0, r5
 8001c90:	61dc      	str	r4, [r3, #28]
 8001c92:	f7ff ffda 	bl	8001c4a <RTC_ExitInitMode>
 8001c96:	3800      	subs	r0, #0
 8001c98:	bf18      	it	ne
 8001c9a:	2001      	movne	r0, #1
 8001c9c:	bd38      	pop	{r3, r4, r5, pc}
 8001c9e:	2001      	movs	r0, #1
 8001ca0:	e7fc      	b.n	8001c9c <RTC_WriteTimeCounter+0x22>

08001ca2 <RTC_WriteAlarmCounter>:
 8001ca2:	b538      	push	{r3, r4, r5, lr}
 8001ca4:	4605      	mov	r5, r0
 8001ca6:	460c      	mov	r4, r1
 8001ca8:	f7ff ffb8 	bl	8001c1c <RTC_EnterInitMode>
 8001cac:	b958      	cbnz	r0, 8001cc6 <RTC_WriteAlarmCounter+0x24>
 8001cae:	682b      	ldr	r3, [r5, #0]
 8001cb0:	0c22      	lsrs	r2, r4, #16
 8001cb2:	b2a4      	uxth	r4, r4
 8001cb4:	621a      	str	r2, [r3, #32]
 8001cb6:	4628      	mov	r0, r5
 8001cb8:	625c      	str	r4, [r3, #36]	; 0x24
 8001cba:	f7ff ffc6 	bl	8001c4a <RTC_ExitInitMode>
 8001cbe:	3800      	subs	r0, #0
 8001cc0:	bf18      	it	ne
 8001cc2:	2001      	movne	r0, #1
 8001cc4:	bd38      	pop	{r3, r4, r5, pc}
 8001cc6:	2001      	movs	r0, #1
 8001cc8:	e7fc      	b.n	8001cc4 <RTC_WriteAlarmCounter+0x22>

08001cca <HAL_RTC_SetTime>:
 8001cca:	b5f8      	push	{r3, r4, r5, r6, r7, lr}
 8001ccc:	4604      	mov	r4, r0
 8001cce:	b1e0      	cbz	r0, 8001d0a <HAL_RTC_SetTime+0x40>
 8001cd0:	b1d9      	cbz	r1, 8001d0a <HAL_RTC_SetTime+0x40>
 8001cd2:	7c03      	ldrb	r3, [r0, #16]
 8001cd4:	2502      	movs	r5, #2
 8001cd6:	2b01      	cmp	r3, #1
 8001cd8:	d044      	beq.n	8001d64 <HAL_RTC_SetTime+0x9a>
 8001cda:	2301      	movs	r3, #1
 8001cdc:	7445      	strb	r5, [r0, #17]
 8001cde:	7403      	strb	r3, [r0, #16]
 8001ce0:	7808      	ldrb	r0, [r1, #0]
 8001ce2:	784d      	ldrb	r5, [r1, #1]
 8001ce4:	788f      	ldrb	r7, [r1, #2]
 8001ce6:	b992      	cbnz	r2, 8001d0e <HAL_RTC_SetTime+0x44>
 8001ce8:	263c      	movs	r6, #60	; 0x3c
 8001cea:	4375      	muls	r5, r6
 8001cec:	f44f 6661 	mov.w	r6, #3600	; 0xe10
 8001cf0:	fb06 5500 	mla	r5, r6, r0, r5
 8001cf4:	19ee      	adds	r6, r5, r7
 8001cf6:	4631      	mov	r1, r6
 8001cf8:	4620      	mov	r0, r4
 8001cfa:	f7ff ffbe 	bl	8001c7a <RTC_WriteTimeCounter>
 8001cfe:	4605      	mov	r5, r0
 8001d00:	b1b0      	cbz	r0, 8001d30 <HAL_RTC_SetTime+0x66>
 8001d02:	2304      	movs	r3, #4
 8001d04:	7463      	strb	r3, [r4, #17]
 8001d06:	2300      	movs	r3, #0
 8001d08:	7423      	strb	r3, [r4, #16]
 8001d0a:	2501      	movs	r5, #1
 8001d0c:	e02a      	b.n	8001d64 <HAL_RTC_SetTime+0x9a>
 8001d0e:	f7ff ff4b 	bl	8001ba8 <RTC_Bcd2ToByte>
 8001d12:	4601      	mov	r1, r0
 8001d14:	4628      	mov	r0, r5
 8001d16:	f7ff ff47 	bl	8001ba8 <RTC_Bcd2ToByte>
 8001d1a:	263c      	movs	r6, #60	; 0x3c
 8001d1c:	4346      	muls	r6, r0
 8001d1e:	f44f 6061 	mov.w	r0, #3600	; 0xe10
 8001d22:	fb00 6601 	mla	r6, r0, r1, r6
 8001d26:	4638      	mov	r0, r7
 8001d28:	f7ff ff3e 	bl	8001ba8 <RTC_Bcd2ToByte>
 8001d2c:	4406      	add	r6, r0
 8001d2e:	e7e2      	b.n	8001cf6 <HAL_RTC_SetTime+0x2c>
 8001d30:	6822      	ldr	r2, [r4, #0]
 8001d32:	4620      	mov	r0, r4
 8001d34:	6853      	ldr	r3, [r2, #4]
 8001d36:	f023 0305 	bic.w	r3, r3, #5
 8001d3a:	6053      	str	r3, [r2, #4]
 8001d3c:	f7ff ff22 	bl	8001b84 <RTC_ReadAlarmCounter>
 8001d40:	4286      	cmp	r6, r0
 8001d42:	d90b      	bls.n	8001d5c <HAL_RTC_SetTime+0x92>
 8001d44:	f500 31a8 	add.w	r1, r0, #86016	; 0x15000
 8001d48:	f501 71c0 	add.w	r1, r1, #384	; 0x180
 8001d4c:	4620      	mov	r0, r4
 8001d4e:	f7ff ffa8 	bl	8001ca2 <RTC_WriteAlarmCounter>
 8001d52:	b118      	cbz	r0, 8001d5c <HAL_RTC_SetTime+0x92>
 8001d54:	2304      	movs	r3, #4
 8001d56:	7425      	strb	r5, [r4, #16]
 8001d58:	7463      	strb	r3, [r4, #17]
 8001d5a:	e7d6      	b.n	8001d0a <HAL_RTC_SetTime+0x40>
 8001d5c:	2301      	movs	r3, #1
 8001d5e:	7463      	strb	r3, [r4, #17]
 8001d60:	2300      	movs	r3, #0
 8001d62:	7423      	strb	r3, [r4, #16]
 8001d64:	4628      	mov	r0, r5
 8001d66:	bdf8      	pop	{r3, r4, r5, r6, r7, pc}

08001d68 <HAL_RTC_GetTime>:
 8001d68:	e92d 47f0 	stmdb	sp!, {r4, r5, r6, r7, r8, r9, sl, lr}
 8001d6c:	460e      	mov	r6, r1
 8001d6e:	4617      	mov	r7, r2
 8001d70:	4605      	mov	r5, r0
 8001d72:	b910      	cbnz	r0, 8001d7a <HAL_RTC_GetTime+0x12>
 8001d74:	2001      	movs	r0, #1
 8001d76:	e8bd 87f0 	ldmia.w	sp!, {r4, r5, r6, r7, r8, r9, sl, pc}
 8001d7a:	2900      	cmp	r1, #0
 8001d7c:	d0fa      	beq.n	8001d74 <HAL_RTC_GetTime+0xc>
 8001d7e:	6803      	ldr	r3, [r0, #0]
 8001d80:	685b      	ldr	r3, [r3, #4]
 8001d82:	f013 0804 	ands.w	r8, r3, #4
 8001d86:	d1f5      	bne.n	8001d74 <HAL_RTC_GetTime+0xc>
 8001d88:	f7ff feea 	bl	8001b60 <RTC_ReadTimeCounter>
 8001d8c:	f44f 6361 	mov.w	r3, #3600	; 0xe10
 8001d90:	fbb0 f2f3 	udiv	r2, r0, r3
 8001d94:	4604      	mov	r4, r0
 8001d96:	fb03 0312 	mls	r3, r3, r2, r0
 8001d9a:	203c      	movs	r0, #60	; 0x3c
 8001d9c:	fbb3 f1f0 	udiv	r1, r3, r0
 8001da0:	fb00 3311 	mls	r3, r0, r1, r3
 8001da4:	70b3      	strb	r3, [r6, #2]
 8001da6:	4b4d      	ldr	r3, [pc, #308]	; (8001edc <HAL_RTC_GetTime+0x174>)
 8001da8:	7071      	strb	r1, [r6, #1]
 8001daa:	429c      	cmp	r4, r3
 8001dac:	f240 808b 	bls.w	8001ec6 <HAL_RTC_GetTime+0x15e>
 8001db0:	2318      	movs	r3, #24
 8001db2:	fbb2 f9f3 	udiv	r9, r2, r3
 8001db6:	fb03 2219 	mls	r2, r3, r9, r2
 8001dba:	4628      	mov	r0, r5
 8001dbc:	7032      	strb	r2, [r6, #0]
 8001dbe:	f7ff fee1 	bl	8001b84 <RTC_ReadAlarmCounter>
 8001dc2:	f1b0 3fff 	cmp.w	r0, #4294967295
 8001dc6:	4682      	mov	sl, r0
 8001dc8:	d005      	beq.n	8001dd6 <HAL_RTC_GetTime+0x6e>
 8001dca:	4284      	cmp	r4, r0
 8001dcc:	bf2c      	ite	cs
 8001dce:	f04f 3aff 	movcs.w	sl, #4294967295
 8001dd2:	eba0 0a04 	subcc.w	sl, r0, r4
 8001dd6:	4942      	ldr	r1, [pc, #264]	; (8001ee0 <HAL_RTC_GetTime+0x178>)
 8001dd8:	4628      	mov	r0, r5
 8001dda:	fb01 4419 	mls	r4, r1, r9, r4
 8001dde:	4621      	mov	r1, r4
 8001de0:	f7ff ff4b 	bl	8001c7a <RTC_WriteTimeCounter>
 8001de4:	2800      	cmp	r0, #0
 8001de6:	d1c5      	bne.n	8001d74 <HAL_RTC_GetTime+0xc>
 8001de8:	f1ba 3fff 	cmp.w	sl, #4294967295
 8001dec:	d027      	beq.n	8001e3e <HAL_RTC_GetTime+0xd6>
 8001dee:	eb04 010a 	add.w	r1, r4, sl
 8001df2:	4628      	mov	r0, r5
 8001df4:	f7ff ff55 	bl	8001ca2 <RTC_WriteAlarmCounter>
 8001df8:	2800      	cmp	r0, #0
 8001dfa:	d1bb      	bne.n	8001d74 <HAL_RTC_GetTime+0xc>
 8001dfc:	2264      	movs	r2, #100	; 0x64
 8001dfe:	f44f 71c8 	mov.w	r1, #400	; 0x190
 8001e02:	f240 2cd5 	movw	ip, #725	; 0x2d5
 8001e06:	7be8      	ldrb	r0, [r5, #15]
 8001e08:	7b6c      	ldrb	r4, [r5, #13]
 8001e0a:	7bab      	ldrb	r3, [r5, #14]
 8001e0c:	45c1      	cmp	r9, r8
 8001e0e:	d118      	bne.n	8001e42 <HAL_RTC_GetTime+0xda>
 8001e10:	b2e1      	uxtb	r1, r4
 8001e12:	b2da      	uxtb	r2, r3
 8001e14:	73e8      	strb	r0, [r5, #15]
 8001e16:	7369      	strb	r1, [r5, #13]
 8001e18:	73aa      	strb	r2, [r5, #14]
 8001e1a:	f7ff fecd 	bl	8001bb8 <RTC_WeekDayNum>
 8001e1e:	7328      	strb	r0, [r5, #12]
 8001e20:	b15f      	cbz	r7, 8001e3a <HAL_RTC_GetTime+0xd2>
 8001e22:	7830      	ldrb	r0, [r6, #0]
 8001e24:	f7ff feb5 	bl	8001b92 <RTC_ByteToBcd2>
 8001e28:	7030      	strb	r0, [r6, #0]
 8001e2a:	7870      	ldrb	r0, [r6, #1]
 8001e2c:	f7ff feb1 	bl	8001b92 <RTC_ByteToBcd2>
 8001e30:	7070      	strb	r0, [r6, #1]
 8001e32:	78b0      	ldrb	r0, [r6, #2]
 8001e34:	f7ff fead 	bl	8001b92 <RTC_ByteToBcd2>
 8001e38:	70b0      	strb	r0, [r6, #2]
 8001e3a:	2000      	movs	r0, #0
 8001e3c:	e79b      	b.n	8001d76 <HAL_RTC_GetTime+0xe>
 8001e3e:	4651      	mov	r1, sl
 8001e40:	e7d7      	b.n	8001df2 <HAL_RTC_GetTime+0x8a>
 8001e42:	f104 3eff 	add.w	lr, r4, #4294967295
 8001e46:	f1be 0f09 	cmp.w	lr, #9
 8001e4a:	d90e      	bls.n	8001e6a <HAL_RTC_GetTime+0x102>
 8001e4c:	2c0c      	cmp	r4, #12
 8001e4e:	d03c      	beq.n	8001eca <HAL_RTC_GetTime+0x162>
 8001e50:	f024 0e02 	bic.w	lr, r4, #2
 8001e54:	f1be 0f04 	cmp.w	lr, #4
 8001e58:	d002      	beq.n	8001e60 <HAL_RTC_GetTime+0xf8>
 8001e5a:	f1be 0f09 	cmp.w	lr, #9
 8001e5e:	d10b      	bne.n	8001e78 <HAL_RTC_GetTime+0x110>
 8001e60:	2b1d      	cmp	r3, #29
 8001e62:	d90d      	bls.n	8001e80 <HAL_RTC_GetTime+0x118>
 8001e64:	2301      	movs	r3, #1
 8001e66:	3401      	adds	r4, #1
 8001e68:	e034      	b.n	8001ed4 <HAL_RTC_GetTime+0x16c>
 8001e6a:	fa2c fe0e 	lsr.w	lr, ip, lr
 8001e6e:	f01e 0f01 	tst.w	lr, #1
 8001e72:	d0ed      	beq.n	8001e50 <HAL_RTC_GetTime+0xe8>
 8001e74:	2b1e      	cmp	r3, #30
 8001e76:	e7f4      	b.n	8001e62 <HAL_RTC_GetTime+0xfa>
 8001e78:	2c02      	cmp	r4, #2
 8001e7a:	d12b      	bne.n	8001ed4 <HAL_RTC_GetTime+0x16c>
 8001e7c:	2b1b      	cmp	r3, #27
 8001e7e:	d801      	bhi.n	8001e84 <HAL_RTC_GetTime+0x11c>
 8001e80:	3301      	adds	r3, #1
 8001e82:	e027      	b.n	8001ed4 <HAL_RTC_GetTime+0x16c>
 8001e84:	2b1c      	cmp	r3, #28
 8001e86:	d117      	bne.n	8001eb8 <HAL_RTC_GetTime+0x150>
 8001e88:	f010 0f03 	tst.w	r0, #3
 8001e8c:	b283      	uxth	r3, r0
 8001e8e:	d115      	bne.n	8001ebc <HAL_RTC_GetTime+0x154>
 8001e90:	fbb3 fef2 	udiv	lr, r3, r2
 8001e94:	fb02 3e1e 	mls	lr, r2, lr, r3
 8001e98:	fa1f fe8e 	uxth.w	lr, lr
 8001e9c:	f1be 0f00 	cmp.w	lr, #0
 8001ea0:	d10f      	bne.n	8001ec2 <HAL_RTC_GetTime+0x15a>
 8001ea2:	fbb3 fef1 	udiv	lr, r3, r1
 8001ea6:	fb01 331e 	mls	r3, r1, lr, r3
 8001eaa:	b29b      	uxth	r3, r3
 8001eac:	2b00      	cmp	r3, #0
 8001eae:	bf16      	itet	ne
 8001eb0:	2301      	movne	r3, #1
 8001eb2:	231d      	moveq	r3, #29
 8001eb4:	2403      	movne	r4, #3
 8001eb6:	e00d      	b.n	8001ed4 <HAL_RTC_GetTime+0x16c>
 8001eb8:	2b1d      	cmp	r3, #29
 8001eba:	d10b      	bne.n	8001ed4 <HAL_RTC_GetTime+0x16c>
 8001ebc:	2301      	movs	r3, #1
 8001ebe:	2403      	movs	r4, #3
 8001ec0:	e008      	b.n	8001ed4 <HAL_RTC_GetTime+0x16c>
 8001ec2:	231d      	movs	r3, #29
 8001ec4:	e006      	b.n	8001ed4 <HAL_RTC_GetTime+0x16c>
 8001ec6:	7032      	strb	r2, [r6, #0]
 8001ec8:	e7aa      	b.n	8001e20 <HAL_RTC_GetTime+0xb8>
 8001eca:	2b1e      	cmp	r3, #30
 8001ecc:	d9d8      	bls.n	8001e80 <HAL_RTC_GetTime+0x118>
 8001ece:	2301      	movs	r3, #1
 8001ed0:	461c      	mov	r4, r3
 8001ed2:	3001      	adds	r0, #1
 8001ed4:	f108 0801 	add.w	r8, r8, #1
 8001ed8:	e798      	b.n	8001e0c <HAL_RTC_GetTime+0xa4>
 8001eda:	bf00      	nop
 8001edc:	0001517f 	.word	0x0001517f
 8001ee0:	00015180 	.word	0x00015180

08001ee4 <HAL_RTC_SetDate>:
 8001ee4:	b570      	push	{r4, r5, r6, lr}
 8001ee6:	460d      	mov	r5, r1
 8001ee8:	4604      	mov	r4, r0
 8001eea:	b350      	cbz	r0, 8001f42 <HAL_RTC_SetDate+0x5e>
 8001eec:	b349      	cbz	r1, 8001f42 <HAL_RTC_SetDate+0x5e>
 8001eee:	7c03      	ldrb	r3, [r0, #16]
 8001ef0:	2002      	movs	r0, #2
 8001ef2:	2b01      	cmp	r3, #1
 8001ef4:	d048      	beq.n	8001f88 <HAL_RTC_SetDate+0xa4>
 8001ef6:	2301      	movs	r3, #1
 8001ef8:	7460      	strb	r0, [r4, #17]
 8001efa:	7423      	strb	r3, [r4, #16]
 8001efc:	78c8      	ldrb	r0, [r1, #3]
 8001efe:	bb12      	cbnz	r2, 8001f46 <HAL_RTC_SetDate+0x62>
 8001f00:	73e0      	strb	r0, [r4, #15]
 8001f02:	784b      	ldrb	r3, [r1, #1]
 8001f04:	7363      	strb	r3, [r4, #13]
 8001f06:	788b      	ldrb	r3, [r1, #2]
 8001f08:	73a3      	strb	r3, [r4, #14]
 8001f0a:	7ba2      	ldrb	r2, [r4, #14]
 8001f0c:	7b61      	ldrb	r1, [r4, #13]
 8001f0e:	7be0      	ldrb	r0, [r4, #15]
 8001f10:	f7ff fe52 	bl	8001bb8 <RTC_WeekDayNum>
 8001f14:	7320      	strb	r0, [r4, #12]
 8001f16:	7028      	strb	r0, [r5, #0]
 8001f18:	4620      	mov	r0, r4
 8001f1a:	f7ff fe21 	bl	8001b60 <RTC_ReadTimeCounter>
 8001f1e:	4b1b      	ldr	r3, [pc, #108]	; (8001f8c <HAL_RTC_SetDate+0xa8>)
 8001f20:	4298      	cmp	r0, r3
 8001f22:	d92d      	bls.n	8001f80 <HAL_RTC_SetDate+0x9c>
 8001f24:	4d1a      	ldr	r5, [pc, #104]	; (8001f90 <HAL_RTC_SetDate+0xac>)
 8001f26:	fbb0 f1f5 	udiv	r1, r0, r5
 8001f2a:	fb05 0511 	mls	r5, r5, r1, r0
 8001f2e:	4620      	mov	r0, r4
 8001f30:	4629      	mov	r1, r5
 8001f32:	f7ff fea2 	bl	8001c7a <RTC_WriteTimeCounter>
 8001f36:	4606      	mov	r6, r0
 8001f38:	b188      	cbz	r0, 8001f5e <HAL_RTC_SetDate+0x7a>
 8001f3a:	2304      	movs	r3, #4
 8001f3c:	7463      	strb	r3, [r4, #17]
 8001f3e:	2300      	movs	r3, #0
 8001f40:	7423      	strb	r3, [r4, #16]
 8001f42:	2001      	movs	r0, #1
 8001f44:	e020      	b.n	8001f88 <HAL_RTC_SetDate+0xa4>
 8001f46:	f7ff fe2f 	bl	8001ba8 <RTC_Bcd2ToByte>
 8001f4a:	73e0      	strb	r0, [r4, #15]
 8001f4c:	7848      	ldrb	r0, [r1, #1]
 8001f4e:	f7ff fe2b 	bl	8001ba8 <RTC_Bcd2ToByte>
 8001f52:	7360      	strb	r0, [r4, #13]
 8001f54:	7888      	ldrb	r0, [r1, #2]
 8001f56:	f7ff fe27 	bl	8001ba8 <RTC_Bcd2ToByte>
 8001f5a:	73a0      	strb	r0, [r4, #14]
 8001f5c:	e7d5      	b.n	8001f0a <HAL_RTC_SetDate+0x26>
 8001f5e:	4620      	mov	r0, r4
 8001f60:	f7ff fe10 	bl	8001b84 <RTC_ReadAlarmCounter>
 8001f64:	4285      	cmp	r5, r0
 8001f66:	d90b      	bls.n	8001f80 <HAL_RTC_SetDate+0x9c>
 8001f68:	f500 31a8 	add.w	r1, r0, #86016	; 0x15000
 8001f6c:	f501 71c0 	add.w	r1, r1, #384	; 0x180
 8001f70:	4620      	mov	r0, r4
 8001f72:	f7ff fe96 	bl	8001ca2 <RTC_WriteAlarmCounter>
 8001f76:	b118      	cbz	r0, 8001f80 <HAL_RTC_SetDate+0x9c>
 8001f78:	2304      	movs	r3, #4
 8001f7a:	7426      	strb	r6, [r4, #16]
 8001f7c:	7463      	strb	r3, [r4, #17]
 8001f7e:	e7e0      	b.n	8001f42 <HAL_RTC_SetDate+0x5e>
 8001f80:	2301      	movs	r3, #1
 8001f82:	2000      	movs	r0, #0
 8001f84:	7463      	strb	r3, [r4, #17]
 8001f86:	7420      	strb	r0, [r4, #16]
 8001f88:	bd70      	pop	{r4, r5, r6, pc}
 8001f8a:	bf00      	nop
 8001f8c:	00015f8f 	.word	0x00015f8f
 8001f90:	00015180 	.word	0x00015180

08001f94 <HAL_RTC_SetAlarm_IT>:
 8001f94:	e92d 43f7 	stmdb	sp!, {r0, r1, r2, r4, r5, r6, r7, r8, r9, lr}
 8001f98:	4691      	mov	r9, r2
 8001f9a:	2200      	movs	r2, #0
 8001f9c:	460f      	mov	r7, r1
 8001f9e:	4605      	mov	r5, r0
 8001fa0:	f8ad 2004 	strh.w	r2, [sp, #4]
 8001fa4:	f88d 2006 	strb.w	r2, [sp, #6]
 8001fa8:	b918      	cbnz	r0, 8001fb2 <HAL_RTC_SetAlarm_IT+0x1e>
 8001faa:	2001      	movs	r0, #1
 8001fac:	b003      	add	sp, #12
 8001fae:	e8bd 83f0 	ldmia.w	sp!, {r4, r5, r6, r7, r8, r9, pc}
 8001fb2:	2900      	cmp	r1, #0
 8001fb4:	d0f9      	beq.n	8001faa <HAL_RTC_SetAlarm_IT+0x16>
 8001fb6:	7c03      	ldrb	r3, [r0, #16]
 8001fb8:	2b01      	cmp	r3, #1
 8001fba:	f04f 0302 	mov.w	r3, #2
 8001fbe:	d051      	beq.n	8002064 <HAL_RTC_SetAlarm_IT+0xd0>
 8001fc0:	2101      	movs	r1, #1
 8001fc2:	7443      	strb	r3, [r0, #17]
 8001fc4:	7401      	strb	r1, [r0, #16]
 8001fc6:	a901      	add	r1, sp, #4
 8001fc8:	f7ff fece 	bl	8001d68 <HAL_RTC_GetTime>
 8001fcc:	2800      	cmp	r0, #0
 8001fce:	d1ec      	bne.n	8001faa <HAL_RTC_SetAlarm_IT+0x16>
 8001fd0:	213c      	movs	r1, #60	; 0x3c
 8001fd2:	f44f 6861 	mov.w	r8, #3600	; 0xe10
 8001fd6:	f89d 6005 	ldrb.w	r6, [sp, #5]
 8001fda:	f89d 3004 	ldrb.w	r3, [sp, #4]
 8001fde:	434e      	muls	r6, r1
 8001fe0:	fb08 6603 	mla	r6, r8, r3, r6
 8001fe4:	f89d 3006 	ldrb.w	r3, [sp, #6]
 8001fe8:	7838      	ldrb	r0, [r7, #0]
 8001fea:	787c      	ldrb	r4, [r7, #1]
 8001fec:	441e      	add	r6, r3
 8001fee:	78bf      	ldrb	r7, [r7, #2]
 8001ff0:	f1b9 0f00 	cmp.w	r9, #0
 8001ff4:	d112      	bne.n	800201c <HAL_RTC_SetAlarm_IT+0x88>
 8001ff6:	434c      	muls	r4, r1
 8001ff8:	fb08 4400 	mla	r4, r8, r0, r4
 8001ffc:	19e1      	adds	r1, r4, r7
 8001ffe:	42b1      	cmp	r1, r6
 8002000:	bf3c      	itt	cc
 8002002:	f501 31a8 	addcc.w	r1, r1, #86016	; 0x15000
 8002006:	f501 71c0 	addcc.w	r1, r1, #384	; 0x180
 800200a:	4628      	mov	r0, r5
 800200c:	f7ff fe49 	bl	8001ca2 <RTC_WriteAlarmCounter>
 8002010:	b190      	cbz	r0, 8002038 <HAL_RTC_SetAlarm_IT+0xa4>
 8002012:	2304      	movs	r3, #4
 8002014:	746b      	strb	r3, [r5, #17]
 8002016:	2300      	movs	r3, #0
 8002018:	742b      	strb	r3, [r5, #16]
 800201a:	e7c6      	b.n	8001faa <HAL_RTC_SetAlarm_IT+0x16>
 800201c:	f7ff fdc4 	bl	8001ba8 <RTC_Bcd2ToByte>
 8002020:	4681      	mov	r9, r0
 8002022:	4620      	mov	r0, r4
 8002024:	f7ff fdc0 	bl	8001ba8 <RTC_Bcd2ToByte>
 8002028:	4341      	muls	r1, r0
 800202a:	4638      	mov	r0, r7
 800202c:	f7ff fdbc 	bl	8001ba8 <RTC_Bcd2ToByte>
 8002030:	fb08 1109 	mla	r1, r8, r9, r1
 8002034:	4401      	add	r1, r0
 8002036:	e7e2      	b.n	8001ffe <HAL_RTC_SetAlarm_IT+0x6a>
 8002038:	682b      	ldr	r3, [r5, #0]
 800203a:	685a      	ldr	r2, [r3, #4]
 800203c:	f022 0202 	bic.w	r2, r2, #2
 8002040:	605a      	str	r2, [r3, #4]
 8002042:	681a      	ldr	r2, [r3, #0]
 8002044:	f042 0202 	orr.w	r2, r2, #2
 8002048:	601a      	str	r2, [r3, #0]
 800204a:	4b07      	ldr	r3, [pc, #28]	; (8002068 <HAL_RTC_SetAlarm_IT+0xd4>)
 800204c:	681a      	ldr	r2, [r3, #0]
 800204e:	f442 3200 	orr.w	r2, r2, #131072	; 0x20000
 8002052:	601a      	str	r2, [r3, #0]
 8002054:	689a      	ldr	r2, [r3, #8]
 8002056:	f442 3200 	orr.w	r2, r2, #131072	; 0x20000
 800205a:	609a      	str	r2, [r3, #8]
 800205c:	2301      	movs	r3, #1
 800205e:	7428      	strb	r0, [r5, #16]
 8002060:	746b      	strb	r3, [r5, #17]
 8002062:	e7a3      	b.n	8001fac <HAL_RTC_SetAlarm_IT+0x18>
 8002064:	4618      	mov	r0, r3
 8002066:	e7a1      	b.n	8001fac <HAL_RTC_SetAlarm_IT+0x18>
 8002068:	40010400 	.word	0x40010400

0800206c <HAL_RTC_AlarmIRQHandler>:
 800206c:	6803      	ldr	r3, [r0, #0]
 800206e:	b510      	push	{r4, lr}
 8002070:	681a      	ldr	r2, [r3, #0]
 8002072:	4604      	mov	r4, r0
 8002074:	0792      	lsls	r2, r2, #30
 8002076:	d509      	bpl.n	800208c <HAL_RTC_AlarmIRQHandler+0x20>
 8002078:	685b      	ldr	r3, [r3, #4]
 800207a:	079b      	lsls	r3, r3, #30
 800207c:	d506      	bpl.n	800208c <HAL_RTC_AlarmIRQHandler+0x20>
 800207e:	f7fe fa01 	bl	8000484 <HAL_RTC_AlarmAEventCallback>
 8002082:	6822      	ldr	r2, [r4, #0]
 8002084:	6853      	ldr	r3, [r2, #4]
 8002086:	f023 0302 	bic.w	r3, r3, #2
 800208a:	6053      	str	r3, [r2, #4]
 800208c:	f44f 3200 	mov.w	r2, #131072	; 0x20000
 8002090:	4b02      	ldr	r3, [pc, #8]	; (800209c <HAL_RTC_AlarmIRQHandler+0x30>)
 8002092:	615a      	str	r2, [r3, #20]
 8002094:	2301      	movs	r3, #1
 8002096:	7463      	strb	r3, [r4, #17]
 8002098:	bd10      	pop	{r4, pc}
 800209a:	bf00      	nop
 800209c:	40010400 	.word	0x40010400

080020a0 <HAL_RTC_WaitForSynchro>:
 80020a0:	b538      	push	{r3, r4, r5, lr}
 80020a2:	4604      	mov	r4, r0
 80020a4:	b1a8      	cbz	r0, 80020d2 <HAL_RTC_WaitForSynchro+0x32>
 80020a6:	6802      	ldr	r2, [r0, #0]
 80020a8:	6853      	ldr	r3, [r2, #4]
 80020aa:	f023 0308 	bic.w	r3, r3, #8
 80020ae:	6053      	str	r3, [r2, #4]
 80020b0:	f7fe ff2e 	bl	8000f10 <HAL_GetTick>
 80020b4:	4605      	mov	r5, r0
 80020b6:	6823      	ldr	r3, [r4, #0]
 80020b8:	685b      	ldr	r3, [r3, #4]
 80020ba:	071b      	lsls	r3, r3, #28
 80020bc:	d501      	bpl.n	80020c2 <HAL_RTC_WaitForSynchro+0x22>
 80020be:	2000      	movs	r0, #0
 80020c0:	bd38      	pop	{r3, r4, r5, pc}
 80020c2:	f7fe ff25 	bl	8000f10 <HAL_GetTick>
 80020c6:	1b40      	subs	r0, r0, r5
 80020c8:	f5b0 7f7a 	cmp.w	r0, #1000	; 0x3e8
 80020cc:	d9f3      	bls.n	80020b6 <HAL_RTC_WaitForSynchro+0x16>
 80020ce:	2003      	movs	r0, #3
 80020d0:	e7f6      	b.n	80020c0 <HAL_RTC_WaitForSynchro+0x20>
 80020d2:	2001      	movs	r0, #1
 80020d4:	e7f4      	b.n	80020c0 <HAL_RTC_WaitForSynchro+0x20>
	...

080020d8 <HAL_RTC_Init>:
 80020d8:	b510      	push	{r4, lr}
 80020da:	4604      	mov	r4, r0
 80020dc:	b170      	cbz	r0, 80020fc <HAL_RTC_Init+0x24>
 80020de:	7c43      	ldrb	r3, [r0, #17]
 80020e0:	f003 02ff 	and.w	r2, r3, #255	; 0xff
 80020e4:	b913      	cbnz	r3, 80020ec <HAL_RTC_Init+0x14>
 80020e6:	7402      	strb	r2, [r0, #16]
 80020e8:	f7fe fc5c 	bl	80009a4 <HAL_RTC_MspInit>
 80020ec:	2302      	movs	r3, #2
 80020ee:	4620      	mov	r0, r4
 80020f0:	7463      	strb	r3, [r4, #17]
 80020f2:	f7ff ffd5 	bl	80020a0 <HAL_RTC_WaitForSynchro>
 80020f6:	b118      	cbz	r0, 8002100 <HAL_RTC_Init+0x28>
 80020f8:	2304      	movs	r3, #4
 80020fa:	7463      	strb	r3, [r4, #17]
 80020fc:	2001      	movs	r0, #1
 80020fe:	e02f      	b.n	8002160 <HAL_RTC_Init+0x88>
 8002100:	4620      	mov	r0, r4
 8002102:	f7ff fd8b 	bl	8001c1c <RTC_EnterInitMode>
 8002106:	2800      	cmp	r0, #0
 8002108:	d1f6      	bne.n	80020f8 <HAL_RTC_Init+0x20>
 800210a:	6822      	ldr	r2, [r4, #0]
 800210c:	68a0      	ldr	r0, [r4, #8]
 800210e:	6853      	ldr	r3, [r2, #4]
 8002110:	f023 0307 	bic.w	r3, r3, #7
 8002114:	6053      	str	r3, [r2, #4]
 8002116:	4a13      	ldr	r2, [pc, #76]	; (8002164 <HAL_RTC_Init+0x8c>)
 8002118:	b118      	cbz	r0, 8002122 <HAL_RTC_Init+0x4a>
 800211a:	6b11      	ldr	r1, [r2, #48]	; 0x30
 800211c:	f021 0101 	bic.w	r1, r1, #1
 8002120:	6311      	str	r1, [r2, #48]	; 0x30
 8002122:	6ad3      	ldr	r3, [r2, #44]	; 0x2c
 8002124:	f423 7360 	bic.w	r3, r3, #896	; 0x380
 8002128:	4303      	orrs	r3, r0
 800212a:	62d3      	str	r3, [r2, #44]	; 0x2c
 800212c:	6860      	ldr	r0, [r4, #4]
 800212e:	1c43      	adds	r3, r0, #1
 8002130:	d105      	bne.n	800213e <HAL_RTC_Init+0x66>
 8002132:	2001      	movs	r0, #1
 8002134:	f7ff fcb6 	bl	8001aa4 <HAL_RCCEx_GetPeriphCLKFreq>
 8002138:	2800      	cmp	r0, #0
 800213a:	d0dd      	beq.n	80020f8 <HAL_RTC_Init+0x20>
 800213c:	3801      	subs	r0, #1
 800213e:	6823      	ldr	r3, [r4, #0]
 8002140:	f3c0 4203 	ubfx	r2, r0, #16, #4
 8002144:	b280      	uxth	r0, r0
 8002146:	609a      	str	r2, [r3, #8]
 8002148:	60d8      	str	r0, [r3, #12]
 800214a:	4620      	mov	r0, r4
 800214c:	f7ff fd7d 	bl	8001c4a <RTC_ExitInitMode>
 8002150:	2301      	movs	r3, #1
 8002152:	b110      	cbz	r0, 800215a <HAL_RTC_Init+0x82>
 8002154:	2204      	movs	r2, #4
 8002156:	7462      	strb	r2, [r4, #17]
 8002158:	e7d0      	b.n	80020fc <HAL_RTC_Init+0x24>
 800215a:	7363      	strb	r3, [r4, #13]
 800215c:	81e3      	strh	r3, [r4, #14]
 800215e:	7463      	strb	r3, [r4, #17]
 8002160:	bd10      	pop	{r4, pc}
 8002162:	bf00      	nop
 8002164:	40006c00 	.word	0x40006c00

08002168 <UART_EndRxTransfer>:
 8002168:	6802      	ldr	r2, [r0, #0]
 800216a:	f102 030c 	add.w	r3, r2, #12
 800216e:	e853 3f00 	ldrex	r3, [r3]
 8002172:	f423 7390 	bic.w	r3, r3, #288	; 0x120
 8002176:	320c      	adds	r2, #12
 8002178:	e842 3100 	strex	r1, r3, [r2]
 800217c:	6802      	ldr	r2, [r0, #0]
 800217e:	2900      	cmp	r1, #0
 8002180:	d1f2      	bne.n	8002168 <UART_EndRxTransfer>
 8002182:	f102 0314 	add.w	r3, r2, #20
 8002186:	e853 3f00 	ldrex	r3, [r3]
 800218a:	f023 0301 	bic.w	r3, r3, #1
 800218e:	f102 0c14 	add.w	ip, r2, #20
 8002192:	e84c 3100 	strex	r1, r3, [ip]
 8002196:	2900      	cmp	r1, #0
 8002198:	d1f3      	bne.n	8002182 <UART_EndRxTransfer+0x1a>
 800219a:	6b03      	ldr	r3, [r0, #48]	; 0x30
 800219c:	2b01      	cmp	r3, #1
 800219e:	d10b      	bne.n	80021b8 <UART_EndRxTransfer+0x50>
 80021a0:	f102 030c 	add.w	r3, r2, #12
 80021a4:	e853 3f00 	ldrex	r3, [r3]
 80021a8:	f023 0310 	bic.w	r3, r3, #16
 80021ac:	f102 0c0c 	add.w	ip, r2, #12
 80021b0:	e84c 3100 	strex	r1, r3, [ip]
 80021b4:	2900      	cmp	r1, #0
 80021b6:	d1f3      	bne.n	80021a0 <UART_EndRxTransfer+0x38>
 80021b8:	2320      	movs	r3, #32
 80021ba:	f880 3042 	strb.w	r3, [r0, #66]	; 0x42
 80021be:	2300      	movs	r3, #0
 80021c0:	6303      	str	r3, [r0, #48]	; 0x30
 80021c2:	4770      	bx	lr

080021c4 <UART_SetConfig>:
 80021c4:	b510      	push	{r4, lr}
 80021c6:	4604      	mov	r4, r0
 80021c8:	6803      	ldr	r3, [r0, #0]
 80021ca:	68c1      	ldr	r1, [r0, #12]
 80021cc:	691a      	ldr	r2, [r3, #16]
 80021ce:	f422 5240 	bic.w	r2, r2, #12288	; 0x3000
 80021d2:	430a      	orrs	r2, r1
 80021d4:	611a      	str	r2, [r3, #16]
 80021d6:	6882      	ldr	r2, [r0, #8]
 80021d8:	6900      	ldr	r0, [r0, #16]
 80021da:	68d9      	ldr	r1, [r3, #12]
 80021dc:	4302      	orrs	r2, r0
 80021de:	6960      	ldr	r0, [r4, #20]
 80021e0:	f421 51b0 	bic.w	r1, r1, #5632	; 0x1600
 80021e4:	f021 010c 	bic.w	r1, r1, #12
 80021e8:	4302      	orrs	r2, r0
 80021ea:	430a      	orrs	r2, r1
 80021ec:	60da      	str	r2, [r3, #12]
 80021ee:	695a      	ldr	r2, [r3, #20]
 80021f0:	69a1      	ldr	r1, [r4, #24]
 80021f2:	f422 7240 	bic.w	r2, r2, #768	; 0x300
 80021f6:	430a      	orrs	r2, r1
 80021f8:	615a      	str	r2, [r3, #20]
 80021fa:	4a0e      	ldr	r2, [pc, #56]	; (8002234 <UART_SetConfig+0x70>)
 80021fc:	4293      	cmp	r3, r2
 80021fe:	d115      	bne.n	800222c <UART_SetConfig+0x68>
 8002200:	f7ff fbc6 	bl	8001990 <HAL_RCC_GetPCLK2Freq>
 8002204:	2319      	movs	r3, #25
 8002206:	4343      	muls	r3, r0
 8002208:	6862      	ldr	r2, [r4, #4]
 800220a:	6820      	ldr	r0, [r4, #0]
 800220c:	0092      	lsls	r2, r2, #2
 800220e:	fbb3 f3f2 	udiv	r3, r3, r2
 8002212:	2264      	movs	r2, #100	; 0x64
 8002214:	fbb3 f1f2 	udiv	r1, r3, r2
 8002218:	fb02 3311 	mls	r3, r2, r1, r3
 800221c:	011b      	lsls	r3, r3, #4
 800221e:	3332      	adds	r3, #50	; 0x32
 8002220:	fbb3 f3f2 	udiv	r3, r3, r2
 8002224:	eb03 1301 	add.w	r3, r3, r1, lsl #4
 8002228:	6083      	str	r3, [r0, #8]
 800222a:	bd10      	pop	{r4, pc}
 800222c:	f7ff fba0 	bl	8001970 <HAL_RCC_GetPCLK1Freq>
 8002230:	e7e8      	b.n	8002204 <UART_SetConfig+0x40>
 8002232:	bf00      	nop
 8002234:	40013800 	.word	0x40013800

08002238 <HAL_UART_Init>:
 8002238:	b510      	push	{r4, lr}
 800223a:	4604      	mov	r4, r0
 800223c:	b348      	cbz	r0, 8002292 <HAL_UART_Init+0x5a>
 800223e:	f890 3041 	ldrb.w	r3, [r0, #65]	; 0x41
 8002242:	f003 02ff 	and.w	r2, r3, #255	; 0xff
 8002246:	b91b      	cbnz	r3, 8002250 <HAL_UART_Init+0x18>
 8002248:	f880 2040 	strb.w	r2, [r0, #64]	; 0x40
 800224c:	f7fe fbd4 	bl	80009f8 <HAL_UART_MspInit>
 8002250:	2324      	movs	r3, #36	; 0x24
 8002252:	6822      	ldr	r2, [r4, #0]
 8002254:	f884 3041 	strb.w	r3, [r4, #65]	; 0x41
 8002258:	68d3      	ldr	r3, [r2, #12]
 800225a:	4620      	mov	r0, r4
 800225c:	f423 5300 	bic.w	r3, r3, #8192	; 0x2000
 8002260:	60d3      	str	r3, [r2, #12]
 8002262:	f7ff ffaf 	bl	80021c4 <UART_SetConfig>
 8002266:	6823      	ldr	r3, [r4, #0]
 8002268:	2000      	movs	r0, #0
 800226a:	691a      	ldr	r2, [r3, #16]
 800226c:	f422 4290 	bic.w	r2, r2, #18432	; 0x4800
 8002270:	611a      	str	r2, [r3, #16]
 8002272:	695a      	ldr	r2, [r3, #20]
 8002274:	f022 022a 	bic.w	r2, r2, #42	; 0x2a
 8002278:	615a      	str	r2, [r3, #20]
 800227a:	68da      	ldr	r2, [r3, #12]
 800227c:	f442 5200 	orr.w	r2, r2, #8192	; 0x2000
 8002280:	60da      	str	r2, [r3, #12]
 8002282:	2320      	movs	r3, #32
 8002284:	6460      	str	r0, [r4, #68]	; 0x44
 8002286:	f884 3041 	strb.w	r3, [r4, #65]	; 0x41
 800228a:	f884 3042 	strb.w	r3, [r4, #66]	; 0x42
 800228e:	6360      	str	r0, [r4, #52]	; 0x34
 8002290:	bd10      	pop	{r4, pc}
 8002292:	2001      	movs	r0, #1
 8002294:	e7fc      	b.n	8002290 <HAL_UART_Init+0x58>
	...

08002298 <HAL_UART_Transmit_DMA>:
 8002298:	b538      	push	{r3, r4, r5, lr}
 800229a:	4604      	mov	r4, r0
 800229c:	4613      	mov	r3, r2
 800229e:	f894 2041 	ldrb.w	r2, [r4, #65]	; 0x41
 80022a2:	2a20      	cmp	r2, #32
 80022a4:	d127      	bne.n	80022f6 <HAL_UART_Transmit_DMA+0x5e>
 80022a6:	b341      	cbz	r1, 80022fa <HAL_UART_Transmit_DMA+0x62>
 80022a8:	b33b      	cbz	r3, 80022fa <HAL_UART_Transmit_DMA+0x62>
 80022aa:	2200      	movs	r2, #0
 80022ac:	2021      	movs	r0, #33	; 0x21
 80022ae:	84e3      	strh	r3, [r4, #38]	; 0x26
 80022b0:	4d13      	ldr	r5, [pc, #76]	; (8002300 <HAL_UART_Transmit_DMA+0x68>)
 80022b2:	6462      	str	r2, [r4, #68]	; 0x44
 80022b4:	f884 0041 	strb.w	r0, [r4, #65]	; 0x41
 80022b8:	6ba0      	ldr	r0, [r4, #56]	; 0x38
 80022ba:	84a3      	strh	r3, [r4, #36]	; 0x24
 80022bc:	6221      	str	r1, [r4, #32]
 80022be:	6285      	str	r5, [r0, #40]	; 0x28
 80022c0:	4d10      	ldr	r5, [pc, #64]	; (8002304 <HAL_UART_Transmit_DMA+0x6c>)
 80022c2:	62c5      	str	r5, [r0, #44]	; 0x2c
 80022c4:	4d10      	ldr	r5, [pc, #64]	; (8002308 <HAL_UART_Transmit_DMA+0x70>)
 80022c6:	e9c0 520c 	strd	r5, r2, [r0, #48]	; 0x30
 80022ca:	6822      	ldr	r2, [r4, #0]
 80022cc:	3204      	adds	r2, #4
 80022ce:	f7fe fed7 	bl	8001080 <HAL_DMA_Start_IT>
 80022d2:	f06f 0240 	mvn.w	r2, #64	; 0x40
 80022d6:	6823      	ldr	r3, [r4, #0]
 80022d8:	601a      	str	r2, [r3, #0]
 80022da:	6822      	ldr	r2, [r4, #0]
 80022dc:	f102 0314 	add.w	r3, r2, #20
 80022e0:	e853 3f00 	ldrex	r3, [r3]
 80022e4:	f043 0380 	orr.w	r3, r3, #128	; 0x80
 80022e8:	f102 0114 	add.w	r1, r2, #20
 80022ec:	e841 3000 	strex	r0, r3, [r1]
 80022f0:	2800      	cmp	r0, #0
 80022f2:	d1f3      	bne.n	80022dc <HAL_UART_Transmit_DMA+0x44>
 80022f4:	bd38      	pop	{r3, r4, r5, pc}
 80022f6:	2002      	movs	r0, #2
 80022f8:	e7fc      	b.n	80022f4 <HAL_UART_Transmit_DMA+0x5c>
 80022fa:	2001      	movs	r0, #1
 80022fc:	e7fa      	b.n	80022f4 <HAL_UART_Transmit_DMA+0x5c>
 80022fe:	bf00      	nop
 8002300:	0800230f 	.word	0x0800230f
 8002304:	0800235d 	.word	0x0800235d
 8002308:	0800236b 	.word	0x0800236b

0800230c <HAL_UART_TxCpltCallback>:
 800230c:	4770      	bx	lr

0800230e <UART_DMATransmitCplt>:
 800230e:	b508      	push	{r3, lr}
 8002310:	4603      	mov	r3, r0
 8002312:	681b      	ldr	r3, [r3, #0]
 8002314:	6a40      	ldr	r0, [r0, #36]	; 0x24
 8002316:	681b      	ldr	r3, [r3, #0]
 8002318:	f013 0320 	ands.w	r3, r3, #32
 800231c:	d11a      	bne.n	8002354 <UART_DMATransmitCplt+0x46>
 800231e:	84c3      	strh	r3, [r0, #38]	; 0x26
 8002320:	6802      	ldr	r2, [r0, #0]
 8002322:	f102 0314 	add.w	r3, r2, #20
 8002326:	e853 3f00 	ldrex	r3, [r3]
 800232a:	f023 0380 	bic.w	r3, r3, #128	; 0x80
 800232e:	3214      	adds	r2, #20
 8002330:	e842 3100 	strex	r1, r3, [r2]
 8002334:	6802      	ldr	r2, [r0, #0]
 8002336:	2900      	cmp	r1, #0
 8002338:	d1f2      	bne.n	8002320 <UART_DMATransmitCplt+0x12>
 800233a:	f102 030c 	add.w	r3, r2, #12
 800233e:	e853 3f00 	ldrex	r3, [r3]
 8002342:	f043 0340 	orr.w	r3, r3, #64	; 0x40
 8002346:	f102 000c 	add.w	r0, r2, #12
 800234a:	e840 3100 	strex	r1, r3, [r0]
 800234e:	2900      	cmp	r1, #0
 8002350:	d1f3      	bne.n	800233a <UART_DMATransmitCplt+0x2c>
 8002352:	bd08      	pop	{r3, pc}
 8002354:	f7ff ffda 	bl	800230c <HAL_UART_TxCpltCallback>
 8002358:	e7fb      	b.n	8002352 <UART_DMATransmitCplt+0x44>

0800235a <HAL_UART_TxHalfCpltCallback>:
 800235a:	4770      	bx	lr

0800235c <UART_DMATxHalfCplt>:
 800235c:	b508      	push	{r3, lr}
 800235e:	6a40      	ldr	r0, [r0, #36]	; 0x24
 8002360:	f7ff fffb 	bl	800235a <HAL_UART_TxHalfCpltCallback>
 8002364:	bd08      	pop	{r3, pc}

08002366 <HAL_UART_RxHalfCpltCallback>:
 8002366:	4770      	bx	lr

08002368 <HAL_UART_ErrorCallback>:
 8002368:	4770      	bx	lr

0800236a <UART_DMAError>:
 800236a:	b508      	push	{r3, lr}
 800236c:	6a40      	ldr	r0, [r0, #36]	; 0x24
 800236e:	6803      	ldr	r3, [r0, #0]
 8002370:	695a      	ldr	r2, [r3, #20]
 8002372:	f890 1041 	ldrb.w	r1, [r0, #65]	; 0x41
 8002376:	2921      	cmp	r1, #33	; 0x21
 8002378:	d112      	bne.n	80023a0 <UART_DMAError+0x36>
 800237a:	0612      	lsls	r2, r2, #24
 800237c:	d510      	bpl.n	80023a0 <UART_DMAError+0x36>
 800237e:	2200      	movs	r2, #0
 8002380:	84c2      	strh	r2, [r0, #38]	; 0x26
 8002382:	f103 020c 	add.w	r2, r3, #12
 8002386:	e852 2f00 	ldrex	r2, [r2]
 800238a:	f022 02c0 	bic.w	r2, r2, #192	; 0xc0
 800238e:	f103 0c0c 	add.w	ip, r3, #12
 8002392:	e84c 2100 	strex	r1, r2, [ip]
 8002396:	2900      	cmp	r1, #0
 8002398:	d1f3      	bne.n	8002382 <UART_DMAError+0x18>
 800239a:	2220      	movs	r2, #32
 800239c:	f880 2041 	strb.w	r2, [r0, #65]	; 0x41
 80023a0:	695b      	ldr	r3, [r3, #20]
 80023a2:	f890 2042 	ldrb.w	r2, [r0, #66]	; 0x42
 80023a6:	2a22      	cmp	r2, #34	; 0x22
 80023a8:	d105      	bne.n	80023b6 <UART_DMAError+0x4c>
 80023aa:	065b      	lsls	r3, r3, #25
 80023ac:	d503      	bpl.n	80023b6 <UART_DMAError+0x4c>
 80023ae:	2300      	movs	r3, #0
 80023b0:	85c3      	strh	r3, [r0, #46]	; 0x2e
 80023b2:	f7ff fed9 	bl	8002168 <UART_EndRxTransfer>
 80023b6:	6c43      	ldr	r3, [r0, #68]	; 0x44
 80023b8:	f043 0310 	orr.w	r3, r3, #16
 80023bc:	6443      	str	r3, [r0, #68]	; 0x44
 80023be:	f7ff ffd3 	bl	8002368 <HAL_UART_ErrorCallback>
 80023c2:	bd08      	pop	{r3, pc}

080023c4 <UART_DMAAbortOnError>:
 80023c4:	b508      	push	{r3, lr}
 80023c6:	2300      	movs	r3, #0
 80023c8:	6a40      	ldr	r0, [r0, #36]	; 0x24
 80023ca:	85c3      	strh	r3, [r0, #46]	; 0x2e
 80023cc:	84c3      	strh	r3, [r0, #38]	; 0x26
 80023ce:	f7ff ffcb 	bl	8002368 <HAL_UART_ErrorCallback>
 80023d2:	bd08      	pop	{r3, pc}

080023d4 <HAL_UARTEx_RxEventCallback>:
 80023d4:	4770      	bx	lr

080023d6 <UART_DMARxHalfCplt>:
 80023d6:	b508      	push	{r3, lr}
 80023d8:	2301      	movs	r3, #1
 80023da:	6a40      	ldr	r0, [r0, #36]	; 0x24
 80023dc:	6343      	str	r3, [r0, #52]	; 0x34
 80023de:	6b03      	ldr	r3, [r0, #48]	; 0x30
 80023e0:	2b01      	cmp	r3, #1
 80023e2:	d104      	bne.n	80023ee <UART_DMARxHalfCplt+0x18>
 80023e4:	8d81      	ldrh	r1, [r0, #44]	; 0x2c
 80023e6:	0849      	lsrs	r1, r1, #1
 80023e8:	f7ff fff4 	bl	80023d4 <HAL_UARTEx_RxEventCallback>
 80023ec:	bd08      	pop	{r3, pc}
 80023ee:	f7ff ffba 	bl	8002366 <HAL_UART_RxHalfCpltCallback>
 80023f2:	e7fb      	b.n	80023ec <UART_DMARxHalfCplt+0x16>

080023f4 <UART_DMAReceiveCplt>:
 80023f4:	b508      	push	{r3, lr}
 80023f6:	4603      	mov	r3, r0
 80023f8:	681b      	ldr	r3, [r3, #0]
 80023fa:	6a40      	ldr	r0, [r0, #36]	; 0x24
 80023fc:	681b      	ldr	r3, [r3, #0]
 80023fe:	f013 0320 	ands.w	r3, r3, #32
 8002402:	d137      	bne.n	8002474 <UART_DMAReceiveCplt+0x80>
 8002404:	85c3      	strh	r3, [r0, #46]	; 0x2e
 8002406:	6802      	ldr	r2, [r0, #0]
 8002408:	f102 030c 	add.w	r3, r2, #12
 800240c:	e853 3f00 	ldrex	r3, [r3]
 8002410:	f423 7380 	bic.w	r3, r3, #256	; 0x100
 8002414:	320c      	adds	r2, #12
 8002416:	e842 3100 	strex	r1, r3, [r2]
 800241a:	6803      	ldr	r3, [r0, #0]
 800241c:	2900      	cmp	r1, #0
 800241e:	d1f2      	bne.n	8002406 <UART_DMAReceiveCplt+0x12>
 8002420:	f103 0214 	add.w	r2, r3, #20
 8002424:	e852 2f00 	ldrex	r2, [r2]
 8002428:	f022 0201 	bic.w	r2, r2, #1
 800242c:	f103 0c14 	add.w	ip, r3, #20
 8002430:	e84c 2100 	strex	r1, r2, [ip]
 8002434:	2900      	cmp	r1, #0
 8002436:	d1f3      	bne.n	8002420 <UART_DMAReceiveCplt+0x2c>
 8002438:	f103 0214 	add.w	r2, r3, #20
 800243c:	e852 2f00 	ldrex	r2, [r2]
 8002440:	f022 0240 	bic.w	r2, r2, #64	; 0x40
 8002444:	f103 0c14 	add.w	ip, r3, #20
 8002448:	e84c 2100 	strex	r1, r2, [ip]
 800244c:	2900      	cmp	r1, #0
 800244e:	d1f3      	bne.n	8002438 <UART_DMAReceiveCplt+0x44>
 8002450:	2220      	movs	r2, #32
 8002452:	f880 2042 	strb.w	r2, [r0, #66]	; 0x42
 8002456:	6b02      	ldr	r2, [r0, #48]	; 0x30
 8002458:	2a01      	cmp	r2, #1
 800245a:	d10b      	bne.n	8002474 <UART_DMAReceiveCplt+0x80>
 800245c:	f103 020c 	add.w	r2, r3, #12
 8002460:	e852 2f00 	ldrex	r2, [r2]
 8002464:	f022 0210 	bic.w	r2, r2, #16
 8002468:	f103 0c0c 	add.w	ip, r3, #12
 800246c:	e84c 2100 	strex	r1, r2, [ip]
 8002470:	2900      	cmp	r1, #0
 8002472:	d1f3      	bne.n	800245c <UART_DMAReceiveCplt+0x68>
 8002474:	2300      	movs	r3, #0
 8002476:	6343      	str	r3, [r0, #52]	; 0x34
 8002478:	6b03      	ldr	r3, [r0, #48]	; 0x30
 800247a:	2b01      	cmp	r3, #1
 800247c:	d103      	bne.n	8002486 <UART_DMAReceiveCplt+0x92>
 800247e:	8d81      	ldrh	r1, [r0, #44]	; 0x2c
 8002480:	f7ff ffa8 	bl	80023d4 <HAL_UARTEx_RxEventCallback>
 8002484:	bd08      	pop	{r3, pc}
 8002486:	f7fe fca3 	bl	8000dd0 <HAL_UART_RxCpltCallback>
 800248a:	e7fb      	b.n	8002484 <UART_DMAReceiveCplt+0x90>

0800248c <UART_Receive_IT.part.0.isra.0>:
 800248c:	b507      	push	{r0, r1, r2, lr}
 800248e:	6881      	ldr	r1, [r0, #8]
 8002490:	6a83      	ldr	r3, [r0, #40]	; 0x28
 8002492:	f5b1 5f80 	cmp.w	r1, #4096	; 0x1000
 8002496:	6802      	ldr	r2, [r0, #0]
 8002498:	d13f      	bne.n	800251a <UART_Receive_IT.part.0.isra.0+0x8e>
 800249a:	6901      	ldr	r1, [r0, #16]
 800249c:	2900      	cmp	r1, #0
 800249e:	d13f      	bne.n	8002520 <UART_Receive_IT.part.0.isra.0+0x94>
 80024a0:	6852      	ldr	r2, [r2, #4]
 80024a2:	f3c2 0208 	ubfx	r2, r2, #0, #9
 80024a6:	f823 2b02 	strh.w	r2, [r3], #2
 80024aa:	6283      	str	r3, [r0, #40]	; 0x28
 80024ac:	8dc3      	ldrh	r3, [r0, #46]	; 0x2e
 80024ae:	3b01      	subs	r3, #1
 80024b0:	b29b      	uxth	r3, r3
 80024b2:	85c3      	strh	r3, [r0, #46]	; 0x2e
 80024b4:	2b00      	cmp	r3, #0
 80024b6:	d12d      	bne.n	8002514 <UART_Receive_IT.part.0.isra.0+0x88>
 80024b8:	6802      	ldr	r2, [r0, #0]
 80024ba:	68d1      	ldr	r1, [r2, #12]
 80024bc:	f021 0120 	bic.w	r1, r1, #32
 80024c0:	60d1      	str	r1, [r2, #12]
 80024c2:	68d1      	ldr	r1, [r2, #12]
 80024c4:	f421 7180 	bic.w	r1, r1, #256	; 0x100
 80024c8:	60d1      	str	r1, [r2, #12]
 80024ca:	6951      	ldr	r1, [r2, #20]
 80024cc:	f021 0101 	bic.w	r1, r1, #1
 80024d0:	6151      	str	r1, [r2, #20]
 80024d2:	2220      	movs	r2, #32
 80024d4:	f880 2042 	strb.w	r2, [r0, #66]	; 0x42
 80024d8:	6343      	str	r3, [r0, #52]	; 0x34
 80024da:	6b02      	ldr	r2, [r0, #48]	; 0x30
 80024dc:	2a01      	cmp	r2, #1
 80024de:	6802      	ldr	r2, [r0, #0]
 80024e0:	d128      	bne.n	8002534 <UART_Receive_IT.part.0.isra.0+0xa8>
 80024e2:	6303      	str	r3, [r0, #48]	; 0x30
 80024e4:	f102 030c 	add.w	r3, r2, #12
 80024e8:	e853 3f00 	ldrex	r3, [r3]
 80024ec:	f023 0310 	bic.w	r3, r3, #16
 80024f0:	f102 0c0c 	add.w	ip, r2, #12
 80024f4:	e84c 3100 	strex	r1, r3, [ip]
 80024f8:	2900      	cmp	r1, #0
 80024fa:	d1f3      	bne.n	80024e4 <UART_Receive_IT.part.0.isra.0+0x58>
 80024fc:	6813      	ldr	r3, [r2, #0]
 80024fe:	06db      	lsls	r3, r3, #27
 8002500:	d505      	bpl.n	800250e <UART_Receive_IT.part.0.isra.0+0x82>
 8002502:	9101      	str	r1, [sp, #4]
 8002504:	6813      	ldr	r3, [r2, #0]
 8002506:	9301      	str	r3, [sp, #4]
 8002508:	6853      	ldr	r3, [r2, #4]
 800250a:	9301      	str	r3, [sp, #4]
 800250c:	9b01      	ldr	r3, [sp, #4]
 800250e:	8d81      	ldrh	r1, [r0, #44]	; 0x2c
 8002510:	f7ff ff60 	bl	80023d4 <HAL_UARTEx_RxEventCallback>
 8002514:	b003      	add	sp, #12
 8002516:	f85d fb04 	ldr.w	pc, [sp], #4
 800251a:	b939      	cbnz	r1, 800252c <UART_Receive_IT.part.0.isra.0+0xa0>
 800251c:	6901      	ldr	r1, [r0, #16]
 800251e:	b929      	cbnz	r1, 800252c <UART_Receive_IT.part.0.isra.0+0xa0>
 8002520:	6852      	ldr	r2, [r2, #4]
 8002522:	b2d2      	uxtb	r2, r2
 8002524:	701a      	strb	r2, [r3, #0]
 8002526:	6a83      	ldr	r3, [r0, #40]	; 0x28
 8002528:	3301      	adds	r3, #1
 800252a:	e7be      	b.n	80024aa <UART_Receive_IT.part.0.isra.0+0x1e>
 800252c:	6852      	ldr	r2, [r2, #4]
 800252e:	f002 027f 	and.w	r2, r2, #127	; 0x7f
 8002532:	e7f7      	b.n	8002524 <UART_Receive_IT.part.0.isra.0+0x98>
 8002534:	f7fe fc4c 	bl	8000dd0 <HAL_UART_RxCpltCallback>
 8002538:	e7ec      	b.n	8002514 <UART_Receive_IT.part.0.isra.0+0x88>
	...

0800253c <HAL_UART_IRQHandler>:
 800253c:	6803      	ldr	r3, [r0, #0]
 800253e:	b537      	push	{r0, r1, r2, r4, r5, lr}
 8002540:	681a      	ldr	r2, [r3, #0]
 8002542:	4604      	mov	r4, r0
 8002544:	f012 0f0f 	tst.w	r2, #15
 8002548:	68d9      	ldr	r1, [r3, #12]
 800254a:	695d      	ldr	r5, [r3, #20]
 800254c:	d10c      	bne.n	8002568 <HAL_UART_IRQHandler+0x2c>
 800254e:	0695      	lsls	r5, r2, #26
 8002550:	d570      	bpl.n	8002634 <HAL_UART_IRQHandler+0xf8>
 8002552:	068d      	lsls	r5, r1, #26
 8002554:	d56e      	bpl.n	8002634 <HAL_UART_IRQHandler+0xf8>
 8002556:	f890 3042 	ldrb.w	r3, [r0, #66]	; 0x42
 800255a:	2b22      	cmp	r3, #34	; 0x22
 800255c:	d164      	bne.n	8002628 <HAL_UART_IRQHandler+0xec>
 800255e:	b003      	add	sp, #12
 8002560:	e8bd 4030 	ldmia.w	sp!, {r4, r5, lr}
 8002564:	f7ff bf92 	b.w	800248c <UART_Receive_IT.part.0.isra.0>
 8002568:	f005 0001 	and.w	r0, r5, #1
 800256c:	f401 7590 	and.w	r5, r1, #288	; 0x120
 8002570:	4305      	orrs	r5, r0
 8002572:	d05f      	beq.n	8002634 <HAL_UART_IRQHandler+0xf8>
 8002574:	07d5      	lsls	r5, r2, #31
 8002576:	d505      	bpl.n	8002584 <HAL_UART_IRQHandler+0x48>
 8002578:	05cb      	lsls	r3, r1, #23
 800257a:	bf42      	ittt	mi
 800257c:	6c63      	ldrmi	r3, [r4, #68]	; 0x44
 800257e:	f043 0301 	orrmi.w	r3, r3, #1
 8002582:	6463      	strmi	r3, [r4, #68]	; 0x44
 8002584:	0755      	lsls	r5, r2, #29
 8002586:	d504      	bpl.n	8002592 <HAL_UART_IRQHandler+0x56>
 8002588:	b118      	cbz	r0, 8002592 <HAL_UART_IRQHandler+0x56>
 800258a:	6c63      	ldr	r3, [r4, #68]	; 0x44
 800258c:	f043 0302 	orr.w	r3, r3, #2
 8002590:	6463      	str	r3, [r4, #68]	; 0x44
 8002592:	0793      	lsls	r3, r2, #30
 8002594:	d504      	bpl.n	80025a0 <HAL_UART_IRQHandler+0x64>
 8002596:	b118      	cbz	r0, 80025a0 <HAL_UART_IRQHandler+0x64>
 8002598:	6c63      	ldr	r3, [r4, #68]	; 0x44
 800259a:	f043 0304 	orr.w	r3, r3, #4
 800259e:	6463      	str	r3, [r4, #68]	; 0x44
 80025a0:	0715      	lsls	r5, r2, #28
 80025a2:	d507      	bpl.n	80025b4 <HAL_UART_IRQHandler+0x78>
 80025a4:	f001 0320 	and.w	r3, r1, #32
 80025a8:	4303      	orrs	r3, r0
 80025aa:	bf1e      	ittt	ne
 80025ac:	6c63      	ldrne	r3, [r4, #68]	; 0x44
 80025ae:	f043 0308 	orrne.w	r3, r3, #8
 80025b2:	6463      	strne	r3, [r4, #68]	; 0x44
 80025b4:	6c63      	ldr	r3, [r4, #68]	; 0x44
 80025b6:	2b00      	cmp	r3, #0
 80025b8:	d036      	beq.n	8002628 <HAL_UART_IRQHandler+0xec>
 80025ba:	0690      	lsls	r0, r2, #26
 80025bc:	d508      	bpl.n	80025d0 <HAL_UART_IRQHandler+0x94>
 80025be:	068a      	lsls	r2, r1, #26
 80025c0:	d506      	bpl.n	80025d0 <HAL_UART_IRQHandler+0x94>
 80025c2:	f894 3042 	ldrb.w	r3, [r4, #66]	; 0x42
 80025c6:	2b22      	cmp	r3, #34	; 0x22
 80025c8:	d102      	bne.n	80025d0 <HAL_UART_IRQHandler+0x94>
 80025ca:	4620      	mov	r0, r4
 80025cc:	f7ff ff5e 	bl	800248c <UART_Receive_IT.part.0.isra.0>
 80025d0:	6823      	ldr	r3, [r4, #0]
 80025d2:	4620      	mov	r0, r4
 80025d4:	695b      	ldr	r3, [r3, #20]
 80025d6:	6c65      	ldr	r5, [r4, #68]	; 0x44
 80025d8:	f003 0340 	and.w	r3, r3, #64	; 0x40
 80025dc:	f005 0508 	and.w	r5, r5, #8
 80025e0:	431d      	orrs	r5, r3
 80025e2:	d023      	beq.n	800262c <HAL_UART_IRQHandler+0xf0>
 80025e4:	f7ff fdc0 	bl	8002168 <UART_EndRxTransfer>
 80025e8:	6822      	ldr	r2, [r4, #0]
 80025ea:	6953      	ldr	r3, [r2, #20]
 80025ec:	065b      	lsls	r3, r3, #25
 80025ee:	d518      	bpl.n	8002622 <HAL_UART_IRQHandler+0xe6>
 80025f0:	f102 0314 	add.w	r3, r2, #20
 80025f4:	e853 3f00 	ldrex	r3, [r3]
 80025f8:	f023 0340 	bic.w	r3, r3, #64	; 0x40
 80025fc:	f102 0014 	add.w	r0, r2, #20
 8002600:	e840 3100 	strex	r1, r3, [r0]
 8002604:	2900      	cmp	r1, #0
 8002606:	d1f3      	bne.n	80025f0 <HAL_UART_IRQHandler+0xb4>
 8002608:	6be0      	ldr	r0, [r4, #60]	; 0x3c
 800260a:	b150      	cbz	r0, 8002622 <HAL_UART_IRQHandler+0xe6>
 800260c:	4b73      	ldr	r3, [pc, #460]	; (80027dc <HAL_UART_IRQHandler+0x2a0>)
 800260e:	6343      	str	r3, [r0, #52]	; 0x34
 8002610:	f7fe fd94 	bl	800113c <HAL_DMA_Abort_IT>
 8002614:	b140      	cbz	r0, 8002628 <HAL_UART_IRQHandler+0xec>
 8002616:	6be0      	ldr	r0, [r4, #60]	; 0x3c
 8002618:	6b43      	ldr	r3, [r0, #52]	; 0x34
 800261a:	b003      	add	sp, #12
 800261c:	e8bd 4030 	ldmia.w	sp!, {r4, r5, lr}
 8002620:	4718      	bx	r3
 8002622:	4620      	mov	r0, r4
 8002624:	f7ff fea0 	bl	8002368 <HAL_UART_ErrorCallback>
 8002628:	b003      	add	sp, #12
 800262a:	bd30      	pop	{r4, r5, pc}
 800262c:	f7ff fe9c 	bl	8002368 <HAL_UART_ErrorCallback>
 8002630:	6465      	str	r5, [r4, #68]	; 0x44
 8002632:	e7f9      	b.n	8002628 <HAL_UART_IRQHandler+0xec>
 8002634:	6b20      	ldr	r0, [r4, #48]	; 0x30
 8002636:	2801      	cmp	r0, #1
 8002638:	f040 8094 	bne.w	8002764 <HAL_UART_IRQHandler+0x228>
 800263c:	06d5      	lsls	r5, r2, #27
 800263e:	f140 8091 	bpl.w	8002764 <HAL_UART_IRQHandler+0x228>
 8002642:	06c8      	lsls	r0, r1, #27
 8002644:	f140 808e 	bpl.w	8002764 <HAL_UART_IRQHandler+0x228>
 8002648:	2200      	movs	r2, #0
 800264a:	9201      	str	r2, [sp, #4]
 800264c:	681a      	ldr	r2, [r3, #0]
 800264e:	9201      	str	r2, [sp, #4]
 8002650:	685a      	ldr	r2, [r3, #4]
 8002652:	9201      	str	r2, [sp, #4]
 8002654:	9a01      	ldr	r2, [sp, #4]
 8002656:	695a      	ldr	r2, [r3, #20]
 8002658:	0655      	lsls	r5, r2, #25
 800265a:	d54d      	bpl.n	80026f8 <HAL_UART_IRQHandler+0x1bc>
 800265c:	6be1      	ldr	r1, [r4, #60]	; 0x3c
 800265e:	680a      	ldr	r2, [r1, #0]
 8002660:	6852      	ldr	r2, [r2, #4]
 8002662:	b292      	uxth	r2, r2
 8002664:	2a00      	cmp	r2, #0
 8002666:	d0df      	beq.n	8002628 <HAL_UART_IRQHandler+0xec>
 8002668:	8da0      	ldrh	r0, [r4, #44]	; 0x2c
 800266a:	4290      	cmp	r0, r2
 800266c:	d9dc      	bls.n	8002628 <HAL_UART_IRQHandler+0xec>
 800266e:	85e2      	strh	r2, [r4, #46]	; 0x2e
 8002670:	698a      	ldr	r2, [r1, #24]
 8002672:	2a20      	cmp	r2, #32
 8002674:	d036      	beq.n	80026e4 <HAL_UART_IRQHandler+0x1a8>
 8002676:	f103 020c 	add.w	r2, r3, #12
 800267a:	e852 2f00 	ldrex	r2, [r2]
 800267e:	f422 7280 	bic.w	r2, r2, #256	; 0x100
 8002682:	f103 000c 	add.w	r0, r3, #12
 8002686:	e840 2100 	strex	r1, r2, [r0]
 800268a:	2900      	cmp	r1, #0
 800268c:	d1f3      	bne.n	8002676 <HAL_UART_IRQHandler+0x13a>
 800268e:	f103 0214 	add.w	r2, r3, #20
 8002692:	e852 2f00 	ldrex	r2, [r2]
 8002696:	f022 0201 	bic.w	r2, r2, #1
 800269a:	f103 0014 	add.w	r0, r3, #20
 800269e:	e840 2100 	strex	r1, r2, [r0]
 80026a2:	2900      	cmp	r1, #0
 80026a4:	d1f3      	bne.n	800268e <HAL_UART_IRQHandler+0x152>
 80026a6:	f103 0214 	add.w	r2, r3, #20
 80026aa:	e852 2f00 	ldrex	r2, [r2]
 80026ae:	f022 0240 	bic.w	r2, r2, #64	; 0x40
 80026b2:	f103 0014 	add.w	r0, r3, #20
 80026b6:	e840 2100 	strex	r1, r2, [r0]
 80026ba:	2900      	cmp	r1, #0
 80026bc:	d1f3      	bne.n	80026a6 <HAL_UART_IRQHandler+0x16a>
 80026be:	2220      	movs	r2, #32
 80026c0:	f884 2042 	strb.w	r2, [r4, #66]	; 0x42
 80026c4:	6321      	str	r1, [r4, #48]	; 0x30
 80026c6:	f103 020c 	add.w	r2, r3, #12
 80026ca:	e852 2f00 	ldrex	r2, [r2]
 80026ce:	f022 0210 	bic.w	r2, r2, #16
 80026d2:	f103 000c 	add.w	r0, r3, #12
 80026d6:	e840 2100 	strex	r1, r2, [r0]
 80026da:	2900      	cmp	r1, #0
 80026dc:	d1f3      	bne.n	80026c6 <HAL_UART_IRQHandler+0x18a>
 80026de:	6be0      	ldr	r0, [r4, #60]	; 0x3c
 80026e0:	f7fe fd0a 	bl	80010f8 <HAL_DMA_Abort>
 80026e4:	2302      	movs	r3, #2
 80026e6:	6363      	str	r3, [r4, #52]	; 0x34
 80026e8:	8de3      	ldrh	r3, [r4, #46]	; 0x2e
 80026ea:	8da1      	ldrh	r1, [r4, #44]	; 0x2c
 80026ec:	1ac9      	subs	r1, r1, r3
 80026ee:	b289      	uxth	r1, r1
 80026f0:	4620      	mov	r0, r4
 80026f2:	f7ff fe6f 	bl	80023d4 <HAL_UARTEx_RxEventCallback>
 80026f6:	e797      	b.n	8002628 <HAL_UART_IRQHandler+0xec>
 80026f8:	8de1      	ldrh	r1, [r4, #46]	; 0x2e
 80026fa:	b28a      	uxth	r2, r1
 80026fc:	8de1      	ldrh	r1, [r4, #46]	; 0x2e
 80026fe:	b289      	uxth	r1, r1
 8002700:	2900      	cmp	r1, #0
 8002702:	d091      	beq.n	8002628 <HAL_UART_IRQHandler+0xec>
 8002704:	8da1      	ldrh	r1, [r4, #44]	; 0x2c
 8002706:	1a89      	subs	r1, r1, r2
 8002708:	b289      	uxth	r1, r1
 800270a:	2900      	cmp	r1, #0
 800270c:	d08c      	beq.n	8002628 <HAL_UART_IRQHandler+0xec>
 800270e:	f103 020c 	add.w	r2, r3, #12
 8002712:	e852 2f00 	ldrex	r2, [r2]
 8002716:	f422 7290 	bic.w	r2, r2, #288	; 0x120
 800271a:	f103 050c 	add.w	r5, r3, #12
 800271e:	e845 2000 	strex	r0, r2, [r5]
 8002722:	2800      	cmp	r0, #0
 8002724:	d1f3      	bne.n	800270e <HAL_UART_IRQHandler+0x1d2>
 8002726:	f103 0214 	add.w	r2, r3, #20
 800272a:	e852 2f00 	ldrex	r2, [r2]
 800272e:	f022 0201 	bic.w	r2, r2, #1
 8002732:	f103 0514 	add.w	r5, r3, #20
 8002736:	e845 2000 	strex	r0, r2, [r5]
 800273a:	2800      	cmp	r0, #0
 800273c:	d1f3      	bne.n	8002726 <HAL_UART_IRQHandler+0x1ea>
 800273e:	2220      	movs	r2, #32
 8002740:	f884 2042 	strb.w	r2, [r4, #66]	; 0x42
 8002744:	6320      	str	r0, [r4, #48]	; 0x30
 8002746:	f103 020c 	add.w	r2, r3, #12
 800274a:	e852 2f00 	ldrex	r2, [r2]
 800274e:	f022 0210 	bic.w	r2, r2, #16
 8002752:	f103 050c 	add.w	r5, r3, #12
 8002756:	e845 2000 	strex	r0, r2, [r5]
 800275a:	2800      	cmp	r0, #0
 800275c:	d1f3      	bne.n	8002746 <HAL_UART_IRQHandler+0x20a>
 800275e:	2302      	movs	r3, #2
 8002760:	6363      	str	r3, [r4, #52]	; 0x34
 8002762:	e7c5      	b.n	80026f0 <HAL_UART_IRQHandler+0x1b4>
 8002764:	0610      	lsls	r0, r2, #24
 8002766:	d528      	bpl.n	80027ba <HAL_UART_IRQHandler+0x27e>
 8002768:	060d      	lsls	r5, r1, #24
 800276a:	d526      	bpl.n	80027ba <HAL_UART_IRQHandler+0x27e>
 800276c:	f894 2041 	ldrb.w	r2, [r4, #65]	; 0x41
 8002770:	2a21      	cmp	r2, #33	; 0x21
 8002772:	f47f af59 	bne.w	8002628 <HAL_UART_IRQHandler+0xec>
 8002776:	68a1      	ldr	r1, [r4, #8]
 8002778:	6a22      	ldr	r2, [r4, #32]
 800277a:	f5b1 5f80 	cmp.w	r1, #4096	; 0x1000
 800277e:	d117      	bne.n	80027b0 <HAL_UART_IRQHandler+0x274>
 8002780:	6921      	ldr	r1, [r4, #16]
 8002782:	b9a9      	cbnz	r1, 80027b0 <HAL_UART_IRQHandler+0x274>
 8002784:	f832 1b02 	ldrh.w	r1, [r2], #2
 8002788:	f3c1 0108 	ubfx	r1, r1, #0, #9
 800278c:	6059      	str	r1, [r3, #4]
 800278e:	6222      	str	r2, [r4, #32]
 8002790:	8ce2      	ldrh	r2, [r4, #38]	; 0x26
 8002792:	3a01      	subs	r2, #1
 8002794:	b292      	uxth	r2, r2
 8002796:	84e2      	strh	r2, [r4, #38]	; 0x26
 8002798:	2a00      	cmp	r2, #0
 800279a:	f47f af45 	bne.w	8002628 <HAL_UART_IRQHandler+0xec>
 800279e:	68da      	ldr	r2, [r3, #12]
 80027a0:	f022 0280 	bic.w	r2, r2, #128	; 0x80
 80027a4:	60da      	str	r2, [r3, #12]
 80027a6:	68da      	ldr	r2, [r3, #12]
 80027a8:	f042 0240 	orr.w	r2, r2, #64	; 0x40
 80027ac:	60da      	str	r2, [r3, #12]
 80027ae:	e73b      	b.n	8002628 <HAL_UART_IRQHandler+0xec>
 80027b0:	1c51      	adds	r1, r2, #1
 80027b2:	6221      	str	r1, [r4, #32]
 80027b4:	7812      	ldrb	r2, [r2, #0]
 80027b6:	605a      	str	r2, [r3, #4]
 80027b8:	e7ea      	b.n	8002790 <HAL_UART_IRQHandler+0x254>
 80027ba:	0650      	lsls	r0, r2, #25
 80027bc:	f57f af34 	bpl.w	8002628 <HAL_UART_IRQHandler+0xec>
 80027c0:	064a      	lsls	r2, r1, #25
 80027c2:	f57f af31 	bpl.w	8002628 <HAL_UART_IRQHandler+0xec>
 80027c6:	68da      	ldr	r2, [r3, #12]
 80027c8:	4620      	mov	r0, r4
 80027ca:	f022 0240 	bic.w	r2, r2, #64	; 0x40
 80027ce:	60da      	str	r2, [r3, #12]
 80027d0:	2320      	movs	r3, #32
 80027d2:	f884 3041 	strb.w	r3, [r4, #65]	; 0x41
 80027d6:	f7ff fd99 	bl	800230c <HAL_UART_TxCpltCallback>
 80027da:	e725      	b.n	8002628 <HAL_UART_IRQHandler+0xec>
 80027dc:	080023c5 	.word	0x080023c5

080027e0 <UART_Start_Receive_DMA>:
 80027e0:	b573      	push	{r0, r1, r4, r5, r6, lr}
 80027e2:	4613      	mov	r3, r2
 80027e4:	8582      	strh	r2, [r0, #44]	; 0x2c
 80027e6:	2500      	movs	r5, #0
 80027e8:	2222      	movs	r2, #34	; 0x22
 80027ea:	4604      	mov	r4, r0
 80027ec:	6281      	str	r1, [r0, #40]	; 0x28
 80027ee:	6445      	str	r5, [r0, #68]	; 0x44
 80027f0:	f880 2042 	strb.w	r2, [r0, #66]	; 0x42
 80027f4:	6bc0      	ldr	r0, [r0, #60]	; 0x3c
 80027f6:	4a1d      	ldr	r2, [pc, #116]	; (800286c <UART_Start_Receive_DMA+0x8c>)
 80027f8:	6826      	ldr	r6, [r4, #0]
 80027fa:	6282      	str	r2, [r0, #40]	; 0x28
 80027fc:	4a1c      	ldr	r2, [pc, #112]	; (8002870 <UART_Start_Receive_DMA+0x90>)
 80027fe:	62c2      	str	r2, [r0, #44]	; 0x2c
 8002800:	4a1c      	ldr	r2, [pc, #112]	; (8002874 <UART_Start_Receive_DMA+0x94>)
 8002802:	e9c0 250c 	strd	r2, r5, [r0, #48]	; 0x30
 8002806:	460a      	mov	r2, r1
 8002808:	1d31      	adds	r1, r6, #4
 800280a:	f7fe fc39 	bl	8001080 <HAL_DMA_Start_IT>
 800280e:	6823      	ldr	r3, [r4, #0]
 8002810:	9501      	str	r5, [sp, #4]
 8002812:	681a      	ldr	r2, [r3, #0]
 8002814:	9201      	str	r2, [sp, #4]
 8002816:	685a      	ldr	r2, [r3, #4]
 8002818:	9201      	str	r2, [sp, #4]
 800281a:	9a01      	ldr	r2, [sp, #4]
 800281c:	6922      	ldr	r2, [r4, #16]
 800281e:	b15a      	cbz	r2, 8002838 <UART_Start_Receive_DMA+0x58>
 8002820:	f103 020c 	add.w	r2, r3, #12
 8002824:	e852 2f00 	ldrex	r2, [r2]
 8002828:	f442 7280 	orr.w	r2, r2, #256	; 0x100
 800282c:	f103 000c 	add.w	r0, r3, #12
 8002830:	e840 2100 	strex	r1, r2, [r0]
 8002834:	2900      	cmp	r1, #0
 8002836:	d1f3      	bne.n	8002820 <UART_Start_Receive_DMA+0x40>
 8002838:	f103 0214 	add.w	r2, r3, #20
 800283c:	e852 2f00 	ldrex	r2, [r2]
 8002840:	f042 0201 	orr.w	r2, r2, #1
 8002844:	f103 0014 	add.w	r0, r3, #20
 8002848:	e840 2100 	strex	r1, r2, [r0]
 800284c:	2900      	cmp	r1, #0
 800284e:	d1f3      	bne.n	8002838 <UART_Start_Receive_DMA+0x58>
 8002850:	f103 0214 	add.w	r2, r3, #20
 8002854:	e852 2f00 	ldrex	r2, [r2]
 8002858:	f042 0240 	orr.w	r2, r2, #64	; 0x40
 800285c:	f103 0114 	add.w	r1, r3, #20
 8002860:	e841 2000 	strex	r0, r2, [r1]
 8002864:	2800      	cmp	r0, #0
 8002866:	d1f3      	bne.n	8002850 <UART_Start_Receive_DMA+0x70>
 8002868:	b002      	add	sp, #8
 800286a:	bd70      	pop	{r4, r5, r6, pc}
 800286c:	080023f5 	.word	0x080023f5
 8002870:	080023d7 	.word	0x080023d7
 8002874:	0800236b 	.word	0x0800236b

08002878 <HAL_UART_Receive_DMA>:
 8002878:	b470      	push	{r4, r5, r6}
 800287a:	f890 6042 	ldrb.w	r6, [r0, #66]	; 0x42
 800287e:	2e20      	cmp	r6, #32
 8002880:	d106      	bne.n	8002890 <HAL_UART_Receive_DMA+0x18>
 8002882:	b141      	cbz	r1, 8002896 <HAL_UART_Receive_DMA+0x1e>
 8002884:	b13a      	cbz	r2, 8002896 <HAL_UART_Receive_DMA+0x1e>
 8002886:	2400      	movs	r4, #0
 8002888:	6304      	str	r4, [r0, #48]	; 0x30
 800288a:	bc70      	pop	{r4, r5, r6}
 800288c:	f7ff bfa8 	b.w	80027e0 <UART_Start_Receive_DMA>
 8002890:	2002      	movs	r0, #2
 8002892:	bc70      	pop	{r4, r5, r6}
 8002894:	4770      	bx	lr
 8002896:	2001      	movs	r0, #1
 8002898:	e7fb      	b.n	8002892 <HAL_UART_Receive_DMA+0x1a>
	...

0800289c <__errno>:
 800289c:	4b01      	ldr	r3, [pc, #4]	; (80028a4 <__errno+0x8>)
 800289e:	6818      	ldr	r0, [r3, #0]
 80028a0:	4770      	bx	lr
 80028a2:	bf00      	nop
 80028a4:	200000b0 	.word	0x200000b0

080028a8 <__libc_init_array>:
 80028a8:	b570      	push	{r4, r5, r6, lr}
 80028aa:	2600      	movs	r6, #0
 80028ac:	4d0c      	ldr	r5, [pc, #48]	; (80028e0 <__libc_init_array+0x38>)
 80028ae:	4c0d      	ldr	r4, [pc, #52]	; (80028e4 <__libc_init_array+0x3c>)
 80028b0:	1b64      	subs	r4, r4, r5
 80028b2:	10a4      	asrs	r4, r4, #2
 80028b4:	42a6      	cmp	r6, r4
 80028b6:	d109      	bne.n	80028cc <__libc_init_array+0x24>
 80028b8:	f001 ff44 	bl	8004744 <_init>
 80028bc:	2600      	movs	r6, #0
 80028be:	4d0a      	ldr	r5, [pc, #40]	; (80028e8 <__libc_init_array+0x40>)
 80028c0:	4c0a      	ldr	r4, [pc, #40]	; (80028ec <__libc_init_array+0x44>)
 80028c2:	1b64      	subs	r4, r4, r5
 80028c4:	10a4      	asrs	r4, r4, #2
 80028c6:	42a6      	cmp	r6, r4
 80028c8:	d105      	bne.n	80028d6 <__libc_init_array+0x2e>
 80028ca:	bd70      	pop	{r4, r5, r6, pc}
 80028cc:	f855 3b04 	ldr.w	r3, [r5], #4
 80028d0:	4798      	blx	r3
 80028d2:	3601      	adds	r6, #1
 80028d4:	e7ee      	b.n	80028b4 <__libc_init_array+0xc>
 80028d6:	f855 3b04 	ldr.w	r3, [r5], #4
 80028da:	4798      	blx	r3
 80028dc:	3601      	adds	r6, #1
 80028de:	e7f2      	b.n	80028c6 <__libc_init_array+0x1e>
 80028e0:	08004c68 	.word	0x08004c68
 80028e4:	08004c68 	.word	0x08004c68
 80028e8:	08004c68 	.word	0x08004c68
 80028ec:	08004c6c 	.word	0x08004c6c

080028f0 <memcpy>:
 80028f0:	440a      	add	r2, r1
 80028f2:	4291      	cmp	r1, r2
 80028f4:	f100 33ff 	add.w	r3, r0, #4294967295
 80028f8:	d100      	bne.n	80028fc <memcpy+0xc>
 80028fa:	4770      	bx	lr
 80028fc:	b510      	push	{r4, lr}
 80028fe:	f811 4b01 	ldrb.w	r4, [r1], #1
 8002902:	4291      	cmp	r1, r2
 8002904:	f803 4f01 	strb.w	r4, [r3, #1]!
 8002908:	d1f9      	bne.n	80028fe <memcpy+0xe>
 800290a:	bd10      	pop	{r4, pc}

0800290c <memset>:
 800290c:	4603      	mov	r3, r0
 800290e:	4402      	add	r2, r0
 8002910:	4293      	cmp	r3, r2
 8002912:	d100      	bne.n	8002916 <memset+0xa>
 8002914:	4770      	bx	lr
 8002916:	f803 1b01 	strb.w	r1, [r3], #1
 800291a:	e7f9      	b.n	8002910 <memset+0x4>

0800291c <siprintf>:
 800291c:	b40e      	push	{r1, r2, r3}
 800291e:	f06f 4100 	mvn.w	r1, #2147483648	; 0x80000000
 8002922:	b500      	push	{lr}
 8002924:	b09c      	sub	sp, #112	; 0x70
 8002926:	ab1d      	add	r3, sp, #116	; 0x74
 8002928:	9002      	str	r0, [sp, #8]
 800292a:	9006      	str	r0, [sp, #24]
 800292c:	9107      	str	r1, [sp, #28]
 800292e:	9104      	str	r1, [sp, #16]
 8002930:	4808      	ldr	r0, [pc, #32]	; (8002954 <siprintf+0x38>)
 8002932:	4909      	ldr	r1, [pc, #36]	; (8002958 <siprintf+0x3c>)
 8002934:	f853 2b04 	ldr.w	r2, [r3], #4
 8002938:	9105      	str	r1, [sp, #20]
 800293a:	6800      	ldr	r0, [r0, #0]
 800293c:	a902      	add	r1, sp, #8
 800293e:	9301      	str	r3, [sp, #4]
 8002940:	f000 fab2 	bl	8002ea8 <_svfiprintf_r>
 8002944:	2200      	movs	r2, #0
 8002946:	9b02      	ldr	r3, [sp, #8]
 8002948:	701a      	strb	r2, [r3, #0]
 800294a:	b01c      	add	sp, #112	; 0x70
 800294c:	f85d eb04 	ldr.w	lr, [sp], #4
 8002950:	b003      	add	sp, #12
 8002952:	4770      	bx	lr
 8002954:	200000b0 	.word	0x200000b0
 8002958:	ffff0208 	.word	0xffff0208

0800295c <siscanf>:
 800295c:	b40e      	push	{r1, r2, r3}
 800295e:	f44f 7201 	mov.w	r2, #516	; 0x204
 8002962:	b530      	push	{r4, r5, lr}
 8002964:	b09c      	sub	sp, #112	; 0x70
 8002966:	ac1f      	add	r4, sp, #124	; 0x7c
 8002968:	f854 5b04 	ldr.w	r5, [r4], #4
 800296c:	f8ad 2014 	strh.w	r2, [sp, #20]
 8002970:	9002      	str	r0, [sp, #8]
 8002972:	9006      	str	r0, [sp, #24]
 8002974:	f7fd fbea 	bl	800014c <strlen>
 8002978:	4b0b      	ldr	r3, [pc, #44]	; (80029a8 <siscanf+0x4c>)
 800297a:	9003      	str	r0, [sp, #12]
 800297c:	930b      	str	r3, [sp, #44]	; 0x2c
 800297e:	2300      	movs	r3, #0
 8002980:	930f      	str	r3, [sp, #60]	; 0x3c
 8002982:	9314      	str	r3, [sp, #80]	; 0x50
 8002984:	f64f 73ff 	movw	r3, #65535	; 0xffff
 8002988:	9007      	str	r0, [sp, #28]
 800298a:	4808      	ldr	r0, [pc, #32]	; (80029ac <siscanf+0x50>)
 800298c:	f8ad 3016 	strh.w	r3, [sp, #22]
 8002990:	462a      	mov	r2, r5
 8002992:	4623      	mov	r3, r4
 8002994:	a902      	add	r1, sp, #8
 8002996:	6800      	ldr	r0, [r0, #0]
 8002998:	9401      	str	r4, [sp, #4]
 800299a:	f000 fbdf 	bl	800315c <__ssvfiscanf_r>
 800299e:	b01c      	add	sp, #112	; 0x70
 80029a0:	e8bd 4030 	ldmia.w	sp!, {r4, r5, lr}
 80029a4:	b003      	add	sp, #12
 80029a6:	4770      	bx	lr
 80029a8:	080029d3 	.word	0x080029d3
 80029ac:	200000b0 	.word	0x200000b0

080029b0 <__sread>:
 80029b0:	b510      	push	{r4, lr}
 80029b2:	460c      	mov	r4, r1
 80029b4:	f9b1 100e 	ldrsh.w	r1, [r1, #14]
 80029b8:	f001 f98a 	bl	8003cd0 <_read_r>
 80029bc:	2800      	cmp	r0, #0
 80029be:	bfab      	itete	ge
 80029c0:	6d63      	ldrge	r3, [r4, #84]	; 0x54
 80029c2:	89a3      	ldrhlt	r3, [r4, #12]
 80029c4:	181b      	addge	r3, r3, r0
 80029c6:	f423 5380 	biclt.w	r3, r3, #4096	; 0x1000
 80029ca:	bfac      	ite	ge
 80029cc:	6563      	strge	r3, [r4, #84]	; 0x54
 80029ce:	81a3      	strhlt	r3, [r4, #12]
 80029d0:	bd10      	pop	{r4, pc}

080029d2 <__seofread>:
 80029d2:	2000      	movs	r0, #0
 80029d4:	4770      	bx	lr

080029d6 <__swrite>:
 80029d6:	e92d 41f0 	stmdb	sp!, {r4, r5, r6, r7, r8, lr}
 80029da:	461f      	mov	r7, r3
 80029dc:	898b      	ldrh	r3, [r1, #12]
 80029de:	4605      	mov	r5, r0
 80029e0:	05db      	lsls	r3, r3, #23
 80029e2:	460c      	mov	r4, r1
 80029e4:	4616      	mov	r6, r2
 80029e6:	d505      	bpl.n	80029f4 <__swrite+0x1e>
 80029e8:	2302      	movs	r3, #2
 80029ea:	2200      	movs	r2, #0
 80029ec:	f9b1 100e 	ldrsh.w	r1, [r1, #14]
 80029f0:	f000 f908 	bl	8002c04 <_lseek_r>
 80029f4:	89a3      	ldrh	r3, [r4, #12]
 80029f6:	4632      	mov	r2, r6
 80029f8:	f423 5380 	bic.w	r3, r3, #4096	; 0x1000
 80029fc:	81a3      	strh	r3, [r4, #12]
 80029fe:	4628      	mov	r0, r5
 8002a00:	463b      	mov	r3, r7
 8002a02:	f9b4 100e 	ldrsh.w	r1, [r4, #14]
 8002a06:	e8bd 41f0 	ldmia.w	sp!, {r4, r5, r6, r7, r8, lr}
 8002a0a:	f000 b8a9 	b.w	8002b60 <_write_r>

08002a0e <__sseek>:
 8002a0e:	b510      	push	{r4, lr}
 8002a10:	460c      	mov	r4, r1
 8002a12:	f9b1 100e 	ldrsh.w	r1, [r1, #14]
 8002a16:	f000 f8f5 	bl	8002c04 <_lseek_r>
 8002a1a:	1c43      	adds	r3, r0, #1
 8002a1c:	89a3      	ldrh	r3, [r4, #12]
 8002a1e:	bf15      	itete	ne
 8002a20:	6560      	strne	r0, [r4, #84]	; 0x54
 8002a22:	f423 5380 	biceq.w	r3, r3, #4096	; 0x1000
 8002a26:	f443 5380 	orrne.w	r3, r3, #4096	; 0x1000
 8002a2a:	81a3      	strheq	r3, [r4, #12]
 8002a2c:	bf18      	it	ne
 8002a2e:	81a3      	strhne	r3, [r4, #12]
 8002a30:	bd10      	pop	{r4, pc}

08002a32 <__sclose>:
 8002a32:	f9b1 100e 	ldrsh.w	r1, [r1, #14]
 8002a36:	f000 b8c3 	b.w	8002bc0 <_close_r>

08002a3a <strcpy>:
 8002a3a:	4603      	mov	r3, r0
 8002a3c:	f811 2b01 	ldrb.w	r2, [r1], #1
 8002a40:	f803 2b01 	strb.w	r2, [r3], #1
 8002a44:	2a00      	cmp	r2, #0
 8002a46:	d1f9      	bne.n	8002a3c <strcpy+0x2>
 8002a48:	4770      	bx	lr

08002a4a <strpbrk>:
 8002a4a:	b570      	push	{r4, r5, r6, lr}
 8002a4c:	4603      	mov	r3, r0
 8002a4e:	7800      	ldrb	r0, [r0, #0]
 8002a50:	b190      	cbz	r0, 8002a78 <strpbrk+0x2e>
 8002a52:	460c      	mov	r4, r1
 8002a54:	4618      	mov	r0, r3
 8002a56:	f813 5b01 	ldrb.w	r5, [r3], #1
 8002a5a:	b14d      	cbz	r5, 8002a70 <strpbrk+0x26>
 8002a5c:	460a      	mov	r2, r1
 8002a5e:	e001      	b.n	8002a64 <strpbrk+0x1a>
 8002a60:	42ae      	cmp	r6, r5
 8002a62:	d009      	beq.n	8002a78 <strpbrk+0x2e>
 8002a64:	4614      	mov	r4, r2
 8002a66:	f812 6b01 	ldrb.w	r6, [r2], #1
 8002a6a:	2e00      	cmp	r6, #0
 8002a6c:	d1f8      	bne.n	8002a60 <strpbrk+0x16>
 8002a6e:	e7f1      	b.n	8002a54 <strpbrk+0xa>
 8002a70:	7823      	ldrb	r3, [r4, #0]
 8002a72:	2b00      	cmp	r3, #0
 8002a74:	bf08      	it	eq
 8002a76:	2000      	moveq	r0, #0
 8002a78:	bd70      	pop	{r4, r5, r6, pc}

08002a7a <strstr>:
 8002a7a:	780a      	ldrb	r2, [r1, #0]
 8002a7c:	b570      	push	{r4, r5, r6, lr}
 8002a7e:	b96a      	cbnz	r2, 8002a9c <strstr+0x22>
 8002a80:	bd70      	pop	{r4, r5, r6, pc}
 8002a82:	429a      	cmp	r2, r3
 8002a84:	d109      	bne.n	8002a9a <strstr+0x20>
 8002a86:	460c      	mov	r4, r1
 8002a88:	4605      	mov	r5, r0
 8002a8a:	f814 3f01 	ldrb.w	r3, [r4, #1]!
 8002a8e:	2b00      	cmp	r3, #0
 8002a90:	d0f6      	beq.n	8002a80 <strstr+0x6>
 8002a92:	f815 6f01 	ldrb.w	r6, [r5, #1]!
 8002a96:	429e      	cmp	r6, r3
 8002a98:	d0f7      	beq.n	8002a8a <strstr+0x10>
 8002a9a:	3001      	adds	r0, #1
 8002a9c:	7803      	ldrb	r3, [r0, #0]
 8002a9e:	2b00      	cmp	r3, #0
 8002aa0:	d1ef      	bne.n	8002a82 <strstr+0x8>
 8002aa2:	4618      	mov	r0, r3
 8002aa4:	e7ec      	b.n	8002a80 <strstr+0x6>
	...

08002aa8 <strtok>:
 8002aa8:	4b16      	ldr	r3, [pc, #88]	; (8002b04 <strtok+0x5c>)
 8002aaa:	e92d 41f0 	stmdb	sp!, {r4, r5, r6, r7, r8, lr}
 8002aae:	681f      	ldr	r7, [r3, #0]
 8002ab0:	4605      	mov	r5, r0
 8002ab2:	6dbc      	ldr	r4, [r7, #88]	; 0x58
 8002ab4:	460e      	mov	r6, r1
 8002ab6:	b9ec      	cbnz	r4, 8002af4 <strtok+0x4c>
 8002ab8:	2050      	movs	r0, #80	; 0x50
 8002aba:	f000 f8b5 	bl	8002c28 <malloc>
 8002abe:	4602      	mov	r2, r0
 8002ac0:	65b8      	str	r0, [r7, #88]	; 0x58
 8002ac2:	b920      	cbnz	r0, 8002ace <strtok+0x26>
 8002ac4:	2157      	movs	r1, #87	; 0x57
 8002ac6:	4b10      	ldr	r3, [pc, #64]	; (8002b08 <strtok+0x60>)
 8002ac8:	4810      	ldr	r0, [pc, #64]	; (8002b0c <strtok+0x64>)
 8002aca:	f000 f85b 	bl	8002b84 <__assert_func>
 8002ace:	e9c0 4400 	strd	r4, r4, [r0]
 8002ad2:	e9c0 4402 	strd	r4, r4, [r0, #8]
 8002ad6:	e9c0 4404 	strd	r4, r4, [r0, #16]
 8002ada:	e9c0 440a 	strd	r4, r4, [r0, #40]	; 0x28
 8002ade:	e9c0 440c 	strd	r4, r4, [r0, #48]	; 0x30
 8002ae2:	e9c0 440e 	strd	r4, r4, [r0, #56]	; 0x38
 8002ae6:	e9c0 4410 	strd	r4, r4, [r0, #64]	; 0x40
 8002aea:	e9c0 4412 	strd	r4, r4, [r0, #72]	; 0x48
 8002aee:	6184      	str	r4, [r0, #24]
 8002af0:	7704      	strb	r4, [r0, #28]
 8002af2:	6244      	str	r4, [r0, #36]	; 0x24
 8002af4:	4631      	mov	r1, r6
 8002af6:	4628      	mov	r0, r5
 8002af8:	6dba      	ldr	r2, [r7, #88]	; 0x58
 8002afa:	2301      	movs	r3, #1
 8002afc:	e8bd 41f0 	ldmia.w	sp!, {r4, r5, r6, r7, r8, lr}
 8002b00:	f000 b806 	b.w	8002b10 <__strtok_r>
 8002b04:	200000b0 	.word	0x200000b0
 8002b08:	08004a0c 	.word	0x08004a0c
 8002b0c:	08004a23 	.word	0x08004a23

08002b10 <__strtok_r>:
 8002b10:	b5f0      	push	{r4, r5, r6, r7, lr}
 8002b12:	b908      	cbnz	r0, 8002b18 <__strtok_r+0x8>
 8002b14:	6810      	ldr	r0, [r2, #0]
 8002b16:	b188      	cbz	r0, 8002b3c <__strtok_r+0x2c>
 8002b18:	4604      	mov	r4, r0
 8002b1a:	460f      	mov	r7, r1
 8002b1c:	4620      	mov	r0, r4
 8002b1e:	f814 5b01 	ldrb.w	r5, [r4], #1
 8002b22:	f817 6b01 	ldrb.w	r6, [r7], #1
 8002b26:	b91e      	cbnz	r6, 8002b30 <__strtok_r+0x20>
 8002b28:	b965      	cbnz	r5, 8002b44 <__strtok_r+0x34>
 8002b2a:	4628      	mov	r0, r5
 8002b2c:	6015      	str	r5, [r2, #0]
 8002b2e:	e005      	b.n	8002b3c <__strtok_r+0x2c>
 8002b30:	42b5      	cmp	r5, r6
 8002b32:	d1f6      	bne.n	8002b22 <__strtok_r+0x12>
 8002b34:	2b00      	cmp	r3, #0
 8002b36:	d1f0      	bne.n	8002b1a <__strtok_r+0xa>
 8002b38:	6014      	str	r4, [r2, #0]
 8002b3a:	7003      	strb	r3, [r0, #0]
 8002b3c:	bdf0      	pop	{r4, r5, r6, r7, pc}
 8002b3e:	461c      	mov	r4, r3
 8002b40:	e00c      	b.n	8002b5c <__strtok_r+0x4c>
 8002b42:	b915      	cbnz	r5, 8002b4a <__strtok_r+0x3a>
 8002b44:	460e      	mov	r6, r1
 8002b46:	f814 3b01 	ldrb.w	r3, [r4], #1
 8002b4a:	f816 5b01 	ldrb.w	r5, [r6], #1
 8002b4e:	42ab      	cmp	r3, r5
 8002b50:	d1f7      	bne.n	8002b42 <__strtok_r+0x32>
 8002b52:	2b00      	cmp	r3, #0
 8002b54:	d0f3      	beq.n	8002b3e <__strtok_r+0x2e>
 8002b56:	2300      	movs	r3, #0
 8002b58:	f804 3c01 	strb.w	r3, [r4, #-1]
 8002b5c:	6014      	str	r4, [r2, #0]
 8002b5e:	e7ed      	b.n	8002b3c <__strtok_r+0x2c>

08002b60 <_write_r>:
 8002b60:	b538      	push	{r3, r4, r5, lr}
 8002b62:	4604      	mov	r4, r0
 8002b64:	4608      	mov	r0, r1
 8002b66:	4611      	mov	r1, r2
 8002b68:	2200      	movs	r2, #0
 8002b6a:	4d05      	ldr	r5, [pc, #20]	; (8002b80 <_write_r+0x20>)
 8002b6c:	602a      	str	r2, [r5, #0]
 8002b6e:	461a      	mov	r2, r3
 8002b70:	f7fe f852 	bl	8000c18 <_write>
 8002b74:	1c43      	adds	r3, r0, #1
 8002b76:	d102      	bne.n	8002b7e <_write_r+0x1e>
 8002b78:	682b      	ldr	r3, [r5, #0]
 8002b7a:	b103      	cbz	r3, 8002b7e <_write_r+0x1e>
 8002b7c:	6023      	str	r3, [r4, #0]
 8002b7e:	bd38      	pop	{r3, r4, r5, pc}
 8002b80:	20000460 	.word	0x20000460

08002b84 <__assert_func>:
 8002b84:	b51f      	push	{r0, r1, r2, r3, r4, lr}
 8002b86:	4614      	mov	r4, r2
 8002b88:	461a      	mov	r2, r3
 8002b8a:	4b09      	ldr	r3, [pc, #36]	; (8002bb0 <__assert_func+0x2c>)
 8002b8c:	4605      	mov	r5, r0
 8002b8e:	681b      	ldr	r3, [r3, #0]
 8002b90:	68d8      	ldr	r0, [r3, #12]
 8002b92:	b14c      	cbz	r4, 8002ba8 <__assert_func+0x24>
 8002b94:	4b07      	ldr	r3, [pc, #28]	; (8002bb4 <__assert_func+0x30>)
 8002b96:	e9cd 3401 	strd	r3, r4, [sp, #4]
 8002b9a:	9100      	str	r1, [sp, #0]
 8002b9c:	462b      	mov	r3, r5
 8002b9e:	4906      	ldr	r1, [pc, #24]	; (8002bb8 <__assert_func+0x34>)
 8002ba0:	f000 f81e 	bl	8002be0 <fiprintf>
 8002ba4:	f001 fad8 	bl	8004158 <abort>
 8002ba8:	4b04      	ldr	r3, [pc, #16]	; (8002bbc <__assert_func+0x38>)
 8002baa:	461c      	mov	r4, r3
 8002bac:	e7f3      	b.n	8002b96 <__assert_func+0x12>
 8002bae:	bf00      	nop
 8002bb0:	200000b0 	.word	0x200000b0
 8002bb4:	08004a80 	.word	0x08004a80
 8002bb8:	08004a8d 	.word	0x08004a8d
 8002bbc:	08004abb 	.word	0x08004abb

08002bc0 <_close_r>:
 8002bc0:	b538      	push	{r3, r4, r5, lr}
 8002bc2:	2300      	movs	r3, #0
 8002bc4:	4d05      	ldr	r5, [pc, #20]	; (8002bdc <_close_r+0x1c>)
 8002bc6:	4604      	mov	r4, r0
 8002bc8:	4608      	mov	r0, r1
 8002bca:	602b      	str	r3, [r5, #0]
 8002bcc:	f7fe f832 	bl	8000c34 <_close>
 8002bd0:	1c43      	adds	r3, r0, #1
 8002bd2:	d102      	bne.n	8002bda <_close_r+0x1a>
 8002bd4:	682b      	ldr	r3, [r5, #0]
 8002bd6:	b103      	cbz	r3, 8002bda <_close_r+0x1a>
 8002bd8:	6023      	str	r3, [r4, #0]
 8002bda:	bd38      	pop	{r3, r4, r5, pc}
 8002bdc:	20000460 	.word	0x20000460

08002be0 <fiprintf>:
 8002be0:	b40e      	push	{r1, r2, r3}
 8002be2:	b503      	push	{r0, r1, lr}
 8002be4:	4601      	mov	r1, r0
 8002be6:	ab03      	add	r3, sp, #12
 8002be8:	4805      	ldr	r0, [pc, #20]	; (8002c00 <fiprintf+0x20>)
 8002bea:	f853 2b04 	ldr.w	r2, [r3], #4
 8002bee:	6800      	ldr	r0, [r0, #0]
 8002bf0:	9301      	str	r3, [sp, #4]
 8002bf2:	f000 fc55 	bl	80034a0 <_vfiprintf_r>
 8002bf6:	b002      	add	sp, #8
 8002bf8:	f85d eb04 	ldr.w	lr, [sp], #4
 8002bfc:	b003      	add	sp, #12
 8002bfe:	4770      	bx	lr
 8002c00:	200000b0 	.word	0x200000b0

08002c04 <_lseek_r>:
 8002c04:	b538      	push	{r3, r4, r5, lr}
 8002c06:	4604      	mov	r4, r0
 8002c08:	4608      	mov	r0, r1
 8002c0a:	4611      	mov	r1, r2
 8002c0c:	2200      	movs	r2, #0
 8002c0e:	4d05      	ldr	r5, [pc, #20]	; (8002c24 <_lseek_r+0x20>)
 8002c10:	602a      	str	r2, [r5, #0]
 8002c12:	461a      	mov	r2, r3
 8002c14:	f7fe f818 	bl	8000c48 <_lseek>
 8002c18:	1c43      	adds	r3, r0, #1
 8002c1a:	d102      	bne.n	8002c22 <_lseek_r+0x1e>
 8002c1c:	682b      	ldr	r3, [r5, #0]
 8002c1e:	b103      	cbz	r3, 8002c22 <_lseek_r+0x1e>
 8002c20:	6023      	str	r3, [r4, #0]
 8002c22:	bd38      	pop	{r3, r4, r5, pc}
 8002c24:	20000460 	.word	0x20000460

08002c28 <malloc>:
 8002c28:	4b02      	ldr	r3, [pc, #8]	; (8002c34 <malloc+0xc>)
 8002c2a:	4601      	mov	r1, r0
 8002c2c:	6818      	ldr	r0, [r3, #0]
 8002c2e:	f000 b86b 	b.w	8002d08 <_malloc_r>
 8002c32:	bf00      	nop
 8002c34:	200000b0 	.word	0x200000b0

08002c38 <_free_r>:
 8002c38:	b538      	push	{r3, r4, r5, lr}
 8002c3a:	4605      	mov	r5, r0
 8002c3c:	2900      	cmp	r1, #0
 8002c3e:	d040      	beq.n	8002cc2 <_free_r+0x8a>
 8002c40:	f851 3c04 	ldr.w	r3, [r1, #-4]
 8002c44:	1f0c      	subs	r4, r1, #4
 8002c46:	2b00      	cmp	r3, #0
 8002c48:	bfb8      	it	lt
 8002c4a:	18e4      	addlt	r4, r4, r3
 8002c4c:	f001 fcd0 	bl	80045f0 <__malloc_lock>
 8002c50:	4a1c      	ldr	r2, [pc, #112]	; (8002cc4 <_free_r+0x8c>)
 8002c52:	6813      	ldr	r3, [r2, #0]
 8002c54:	b933      	cbnz	r3, 8002c64 <_free_r+0x2c>
 8002c56:	6063      	str	r3, [r4, #4]
 8002c58:	6014      	str	r4, [r2, #0]
 8002c5a:	4628      	mov	r0, r5
 8002c5c:	e8bd 4038 	ldmia.w	sp!, {r3, r4, r5, lr}
 8002c60:	f001 bccc 	b.w	80045fc <__malloc_unlock>
 8002c64:	42a3      	cmp	r3, r4
 8002c66:	d908      	bls.n	8002c7a <_free_r+0x42>
 8002c68:	6820      	ldr	r0, [r4, #0]
 8002c6a:	1821      	adds	r1, r4, r0
 8002c6c:	428b      	cmp	r3, r1
 8002c6e:	bf01      	itttt	eq
 8002c70:	6819      	ldreq	r1, [r3, #0]
 8002c72:	685b      	ldreq	r3, [r3, #4]
 8002c74:	1809      	addeq	r1, r1, r0
 8002c76:	6021      	streq	r1, [r4, #0]
 8002c78:	e7ed      	b.n	8002c56 <_free_r+0x1e>
 8002c7a:	461a      	mov	r2, r3
 8002c7c:	685b      	ldr	r3, [r3, #4]
 8002c7e:	b10b      	cbz	r3, 8002c84 <_free_r+0x4c>
 8002c80:	42a3      	cmp	r3, r4
 8002c82:	d9fa      	bls.n	8002c7a <_free_r+0x42>
 8002c84:	6811      	ldr	r1, [r2, #0]
 8002c86:	1850      	adds	r0, r2, r1
 8002c88:	42a0      	cmp	r0, r4
 8002c8a:	d10b      	bne.n	8002ca4 <_free_r+0x6c>
 8002c8c:	6820      	ldr	r0, [r4, #0]
 8002c8e:	4401      	add	r1, r0
 8002c90:	1850      	adds	r0, r2, r1
 8002c92:	4283      	cmp	r3, r0
 8002c94:	6011      	str	r1, [r2, #0]
 8002c96:	d1e0      	bne.n	8002c5a <_free_r+0x22>
 8002c98:	6818      	ldr	r0, [r3, #0]
 8002c9a:	685b      	ldr	r3, [r3, #4]
 8002c9c:	4401      	add	r1, r0
 8002c9e:	6011      	str	r1, [r2, #0]
 8002ca0:	6053      	str	r3, [r2, #4]
 8002ca2:	e7da      	b.n	8002c5a <_free_r+0x22>
 8002ca4:	d902      	bls.n	8002cac <_free_r+0x74>
 8002ca6:	230c      	movs	r3, #12
 8002ca8:	602b      	str	r3, [r5, #0]
 8002caa:	e7d6      	b.n	8002c5a <_free_r+0x22>
 8002cac:	6820      	ldr	r0, [r4, #0]
 8002cae:	1821      	adds	r1, r4, r0
 8002cb0:	428b      	cmp	r3, r1
 8002cb2:	bf01      	itttt	eq
 8002cb4:	6819      	ldreq	r1, [r3, #0]
 8002cb6:	685b      	ldreq	r3, [r3, #4]
 8002cb8:	1809      	addeq	r1, r1, r0
 8002cba:	6021      	streq	r1, [r4, #0]
 8002cbc:	6063      	str	r3, [r4, #4]
 8002cbe:	6054      	str	r4, [r2, #4]
 8002cc0:	e7cb      	b.n	8002c5a <_free_r+0x22>
 8002cc2:	bd38      	pop	{r3, r4, r5, pc}
 8002cc4:	20000458 	.word	0x20000458

08002cc8 <sbrk_aligned>:
 8002cc8:	b570      	push	{r4, r5, r6, lr}
 8002cca:	4e0e      	ldr	r6, [pc, #56]	; (8002d04 <sbrk_aligned+0x3c>)
 8002ccc:	460c      	mov	r4, r1
 8002cce:	6831      	ldr	r1, [r6, #0]
 8002cd0:	4605      	mov	r5, r0
 8002cd2:	b911      	cbnz	r1, 8002cda <sbrk_aligned+0x12>
 8002cd4:	f001 f80e 	bl	8003cf4 <_sbrk_r>
 8002cd8:	6030      	str	r0, [r6, #0]
 8002cda:	4621      	mov	r1, r4
 8002cdc:	4628      	mov	r0, r5
 8002cde:	f001 f809 	bl	8003cf4 <_sbrk_r>
 8002ce2:	1c43      	adds	r3, r0, #1
 8002ce4:	d00a      	beq.n	8002cfc <sbrk_aligned+0x34>
 8002ce6:	1cc4      	adds	r4, r0, #3
 8002ce8:	f024 0403 	bic.w	r4, r4, #3
 8002cec:	42a0      	cmp	r0, r4
 8002cee:	d007      	beq.n	8002d00 <sbrk_aligned+0x38>
 8002cf0:	1a21      	subs	r1, r4, r0
 8002cf2:	4628      	mov	r0, r5
 8002cf4:	f000 fffe 	bl	8003cf4 <_sbrk_r>
 8002cf8:	3001      	adds	r0, #1
 8002cfa:	d101      	bne.n	8002d00 <sbrk_aligned+0x38>
 8002cfc:	f04f 34ff 	mov.w	r4, #4294967295
 8002d00:	4620      	mov	r0, r4
 8002d02:	bd70      	pop	{r4, r5, r6, pc}
 8002d04:	2000045c 	.word	0x2000045c

08002d08 <_malloc_r>:
 8002d08:	e92d 41f0 	stmdb	sp!, {r4, r5, r6, r7, r8, lr}
 8002d0c:	1ccd      	adds	r5, r1, #3
 8002d0e:	f025 0503 	bic.w	r5, r5, #3
 8002d12:	3508      	adds	r5, #8
 8002d14:	2d0c      	cmp	r5, #12
 8002d16:	bf38      	it	cc
 8002d18:	250c      	movcc	r5, #12
 8002d1a:	2d00      	cmp	r5, #0
 8002d1c:	4607      	mov	r7, r0
 8002d1e:	db01      	blt.n	8002d24 <_malloc_r+0x1c>
 8002d20:	42a9      	cmp	r1, r5
 8002d22:	d905      	bls.n	8002d30 <_malloc_r+0x28>
 8002d24:	230c      	movs	r3, #12
 8002d26:	2600      	movs	r6, #0
 8002d28:	603b      	str	r3, [r7, #0]
 8002d2a:	4630      	mov	r0, r6
 8002d2c:	e8bd 81f0 	ldmia.w	sp!, {r4, r5, r6, r7, r8, pc}
 8002d30:	4e2e      	ldr	r6, [pc, #184]	; (8002dec <_malloc_r+0xe4>)
 8002d32:	f001 fc5d 	bl	80045f0 <__malloc_lock>
 8002d36:	6833      	ldr	r3, [r6, #0]
 8002d38:	461c      	mov	r4, r3
 8002d3a:	bb34      	cbnz	r4, 8002d8a <_malloc_r+0x82>
 8002d3c:	4629      	mov	r1, r5
 8002d3e:	4638      	mov	r0, r7
 8002d40:	f7ff ffc2 	bl	8002cc8 <sbrk_aligned>
 8002d44:	1c43      	adds	r3, r0, #1
 8002d46:	4604      	mov	r4, r0
 8002d48:	d14d      	bne.n	8002de6 <_malloc_r+0xde>
 8002d4a:	6834      	ldr	r4, [r6, #0]
 8002d4c:	4626      	mov	r6, r4
 8002d4e:	2e00      	cmp	r6, #0
 8002d50:	d140      	bne.n	8002dd4 <_malloc_r+0xcc>
 8002d52:	6823      	ldr	r3, [r4, #0]
 8002d54:	4631      	mov	r1, r6
 8002d56:	4638      	mov	r0, r7
 8002d58:	eb04 0803 	add.w	r8, r4, r3
 8002d5c:	f000 ffca 	bl	8003cf4 <_sbrk_r>
 8002d60:	4580      	cmp	r8, r0
 8002d62:	d13a      	bne.n	8002dda <_malloc_r+0xd2>
 8002d64:	6821      	ldr	r1, [r4, #0]
 8002d66:	3503      	adds	r5, #3
 8002d68:	1a6d      	subs	r5, r5, r1
 8002d6a:	f025 0503 	bic.w	r5, r5, #3
 8002d6e:	3508      	adds	r5, #8
 8002d70:	2d0c      	cmp	r5, #12
 8002d72:	bf38      	it	cc
 8002d74:	250c      	movcc	r5, #12
 8002d76:	4638      	mov	r0, r7
 8002d78:	4629      	mov	r1, r5
 8002d7a:	f7ff ffa5 	bl	8002cc8 <sbrk_aligned>
 8002d7e:	3001      	adds	r0, #1
 8002d80:	d02b      	beq.n	8002dda <_malloc_r+0xd2>
 8002d82:	6823      	ldr	r3, [r4, #0]
 8002d84:	442b      	add	r3, r5
 8002d86:	6023      	str	r3, [r4, #0]
 8002d88:	e00e      	b.n	8002da8 <_malloc_r+0xa0>
 8002d8a:	6822      	ldr	r2, [r4, #0]
 8002d8c:	1b52      	subs	r2, r2, r5
 8002d8e:	d41e      	bmi.n	8002dce <_malloc_r+0xc6>
 8002d90:	2a0b      	cmp	r2, #11
 8002d92:	d916      	bls.n	8002dc2 <_malloc_r+0xba>
 8002d94:	1961      	adds	r1, r4, r5
 8002d96:	42a3      	cmp	r3, r4
 8002d98:	6025      	str	r5, [r4, #0]
 8002d9a:	bf18      	it	ne
 8002d9c:	6059      	strne	r1, [r3, #4]
 8002d9e:	6863      	ldr	r3, [r4, #4]
 8002da0:	bf08      	it	eq
 8002da2:	6031      	streq	r1, [r6, #0]
 8002da4:	5162      	str	r2, [r4, r5]
 8002da6:	604b      	str	r3, [r1, #4]
 8002da8:	4638      	mov	r0, r7
 8002daa:	f104 060b 	add.w	r6, r4, #11
 8002dae:	f001 fc25 	bl	80045fc <__malloc_unlock>
 8002db2:	f026 0607 	bic.w	r6, r6, #7
 8002db6:	1d23      	adds	r3, r4, #4
 8002db8:	1af2      	subs	r2, r6, r3
 8002dba:	d0b6      	beq.n	8002d2a <_malloc_r+0x22>
 8002dbc:	1b9b      	subs	r3, r3, r6
 8002dbe:	50a3      	str	r3, [r4, r2]
 8002dc0:	e7b3      	b.n	8002d2a <_malloc_r+0x22>
 8002dc2:	6862      	ldr	r2, [r4, #4]
 8002dc4:	42a3      	cmp	r3, r4
 8002dc6:	bf0c      	ite	eq
 8002dc8:	6032      	streq	r2, [r6, #0]
 8002dca:	605a      	strne	r2, [r3, #4]
 8002dcc:	e7ec      	b.n	8002da8 <_malloc_r+0xa0>
 8002dce:	4623      	mov	r3, r4
 8002dd0:	6864      	ldr	r4, [r4, #4]
 8002dd2:	e7b2      	b.n	8002d3a <_malloc_r+0x32>
 8002dd4:	4634      	mov	r4, r6
 8002dd6:	6876      	ldr	r6, [r6, #4]
 8002dd8:	e7b9      	b.n	8002d4e <_malloc_r+0x46>
 8002dda:	230c      	movs	r3, #12
 8002ddc:	4638      	mov	r0, r7
 8002dde:	603b      	str	r3, [r7, #0]
 8002de0:	f001 fc0c 	bl	80045fc <__malloc_unlock>
 8002de4:	e7a1      	b.n	8002d2a <_malloc_r+0x22>
 8002de6:	6025      	str	r5, [r4, #0]
 8002de8:	e7de      	b.n	8002da8 <_malloc_r+0xa0>
 8002dea:	bf00      	nop
 8002dec:	20000458 	.word	0x20000458

08002df0 <__ssputs_r>:
 8002df0:	e92d 47f0 	stmdb	sp!, {r4, r5, r6, r7, r8, r9, sl, lr}
 8002df4:	688e      	ldr	r6, [r1, #8]
 8002df6:	4682      	mov	sl, r0
 8002df8:	429e      	cmp	r6, r3
 8002dfa:	460c      	mov	r4, r1
 8002dfc:	4690      	mov	r8, r2
 8002dfe:	461f      	mov	r7, r3
 8002e00:	d838      	bhi.n	8002e74 <__ssputs_r+0x84>
 8002e02:	898a      	ldrh	r2, [r1, #12]
 8002e04:	f412 6f90 	tst.w	r2, #1152	; 0x480
 8002e08:	d032      	beq.n	8002e70 <__ssputs_r+0x80>
 8002e0a:	6825      	ldr	r5, [r4, #0]
 8002e0c:	6909      	ldr	r1, [r1, #16]
 8002e0e:	3301      	adds	r3, #1
 8002e10:	eba5 0901 	sub.w	r9, r5, r1
 8002e14:	6965      	ldr	r5, [r4, #20]
 8002e16:	444b      	add	r3, r9
 8002e18:	eb05 0545 	add.w	r5, r5, r5, lsl #1
 8002e1c:	eb05 75d5 	add.w	r5, r5, r5, lsr #31
 8002e20:	106d      	asrs	r5, r5, #1
 8002e22:	429d      	cmp	r5, r3
 8002e24:	bf38      	it	cc
 8002e26:	461d      	movcc	r5, r3
 8002e28:	0553      	lsls	r3, r2, #21
 8002e2a:	d531      	bpl.n	8002e90 <__ssputs_r+0xa0>
 8002e2c:	4629      	mov	r1, r5
 8002e2e:	f7ff ff6b 	bl	8002d08 <_malloc_r>
 8002e32:	4606      	mov	r6, r0
 8002e34:	b950      	cbnz	r0, 8002e4c <__ssputs_r+0x5c>
 8002e36:	230c      	movs	r3, #12
 8002e38:	f04f 30ff 	mov.w	r0, #4294967295
 8002e3c:	f8ca 3000 	str.w	r3, [sl]
 8002e40:	89a3      	ldrh	r3, [r4, #12]
 8002e42:	f043 0340 	orr.w	r3, r3, #64	; 0x40
 8002e46:	81a3      	strh	r3, [r4, #12]
 8002e48:	e8bd 87f0 	ldmia.w	sp!, {r4, r5, r6, r7, r8, r9, sl, pc}
 8002e4c:	464a      	mov	r2, r9
 8002e4e:	6921      	ldr	r1, [r4, #16]
 8002e50:	f7ff fd4e 	bl	80028f0 <memcpy>
 8002e54:	89a3      	ldrh	r3, [r4, #12]
 8002e56:	f423 6390 	bic.w	r3, r3, #1152	; 0x480
 8002e5a:	f043 0380 	orr.w	r3, r3, #128	; 0x80
 8002e5e:	81a3      	strh	r3, [r4, #12]
 8002e60:	6126      	str	r6, [r4, #16]
 8002e62:	444e      	add	r6, r9
 8002e64:	6026      	str	r6, [r4, #0]
 8002e66:	463e      	mov	r6, r7
 8002e68:	6165      	str	r5, [r4, #20]
 8002e6a:	eba5 0509 	sub.w	r5, r5, r9
 8002e6e:	60a5      	str	r5, [r4, #8]
 8002e70:	42be      	cmp	r6, r7
 8002e72:	d900      	bls.n	8002e76 <__ssputs_r+0x86>
 8002e74:	463e      	mov	r6, r7
 8002e76:	4632      	mov	r2, r6
 8002e78:	4641      	mov	r1, r8
 8002e7a:	6820      	ldr	r0, [r4, #0]
 8002e7c:	f001 fb9e 	bl	80045bc <memmove>
 8002e80:	68a3      	ldr	r3, [r4, #8]
 8002e82:	2000      	movs	r0, #0
 8002e84:	1b9b      	subs	r3, r3, r6
 8002e86:	60a3      	str	r3, [r4, #8]
 8002e88:	6823      	ldr	r3, [r4, #0]
 8002e8a:	4433      	add	r3, r6
 8002e8c:	6023      	str	r3, [r4, #0]
 8002e8e:	e7db      	b.n	8002e48 <__ssputs_r+0x58>
 8002e90:	462a      	mov	r2, r5
 8002e92:	f001 fbb9 	bl	8004608 <_realloc_r>
 8002e96:	4606      	mov	r6, r0
 8002e98:	2800      	cmp	r0, #0
 8002e9a:	d1e1      	bne.n	8002e60 <__ssputs_r+0x70>
 8002e9c:	4650      	mov	r0, sl
 8002e9e:	6921      	ldr	r1, [r4, #16]
 8002ea0:	f7ff feca 	bl	8002c38 <_free_r>
 8002ea4:	e7c7      	b.n	8002e36 <__ssputs_r+0x46>
	...

08002ea8 <_svfiprintf_r>:
 8002ea8:	e92d 4ff0 	stmdb	sp!, {r4, r5, r6, r7, r8, r9, sl, fp, lr}
 8002eac:	4698      	mov	r8, r3
 8002eae:	898b      	ldrh	r3, [r1, #12]
 8002eb0:	4607      	mov	r7, r0
 8002eb2:	061b      	lsls	r3, r3, #24
 8002eb4:	460d      	mov	r5, r1
 8002eb6:	4614      	mov	r4, r2
 8002eb8:	b09d      	sub	sp, #116	; 0x74
 8002eba:	d50e      	bpl.n	8002eda <_svfiprintf_r+0x32>
 8002ebc:	690b      	ldr	r3, [r1, #16]
 8002ebe:	b963      	cbnz	r3, 8002eda <_svfiprintf_r+0x32>
 8002ec0:	2140      	movs	r1, #64	; 0x40
 8002ec2:	f7ff ff21 	bl	8002d08 <_malloc_r>
 8002ec6:	6028      	str	r0, [r5, #0]
 8002ec8:	6128      	str	r0, [r5, #16]
 8002eca:	b920      	cbnz	r0, 8002ed6 <_svfiprintf_r+0x2e>
 8002ecc:	230c      	movs	r3, #12
 8002ece:	603b      	str	r3, [r7, #0]
 8002ed0:	f04f 30ff 	mov.w	r0, #4294967295
 8002ed4:	e0d1      	b.n	800307a <_svfiprintf_r+0x1d2>
 8002ed6:	2340      	movs	r3, #64	; 0x40
 8002ed8:	616b      	str	r3, [r5, #20]
 8002eda:	2300      	movs	r3, #0
 8002edc:	9309      	str	r3, [sp, #36]	; 0x24
 8002ede:	2320      	movs	r3, #32
 8002ee0:	f88d 3029 	strb.w	r3, [sp, #41]	; 0x29
 8002ee4:	2330      	movs	r3, #48	; 0x30
 8002ee6:	f04f 0901 	mov.w	r9, #1
 8002eea:	f8cd 800c 	str.w	r8, [sp, #12]
 8002eee:	f8df 81a4 	ldr.w	r8, [pc, #420]	; 8003094 <_svfiprintf_r+0x1ec>
 8002ef2:	f88d 302a 	strb.w	r3, [sp, #42]	; 0x2a
 8002ef6:	4623      	mov	r3, r4
 8002ef8:	469a      	mov	sl, r3
 8002efa:	f813 2b01 	ldrb.w	r2, [r3], #1
 8002efe:	b10a      	cbz	r2, 8002f04 <_svfiprintf_r+0x5c>
 8002f00:	2a25      	cmp	r2, #37	; 0x25
 8002f02:	d1f9      	bne.n	8002ef8 <_svfiprintf_r+0x50>
 8002f04:	ebba 0b04 	subs.w	fp, sl, r4
 8002f08:	d00b      	beq.n	8002f22 <_svfiprintf_r+0x7a>
 8002f0a:	465b      	mov	r3, fp
 8002f0c:	4622      	mov	r2, r4
 8002f0e:	4629      	mov	r1, r5
 8002f10:	4638      	mov	r0, r7
 8002f12:	f7ff ff6d 	bl	8002df0 <__ssputs_r>
 8002f16:	3001      	adds	r0, #1
 8002f18:	f000 80aa 	beq.w	8003070 <_svfiprintf_r+0x1c8>
 8002f1c:	9a09      	ldr	r2, [sp, #36]	; 0x24
 8002f1e:	445a      	add	r2, fp
 8002f20:	9209      	str	r2, [sp, #36]	; 0x24
 8002f22:	f89a 3000 	ldrb.w	r3, [sl]
 8002f26:	2b00      	cmp	r3, #0
 8002f28:	f000 80a2 	beq.w	8003070 <_svfiprintf_r+0x1c8>
 8002f2c:	2300      	movs	r3, #0
 8002f2e:	f04f 32ff 	mov.w	r2, #4294967295
 8002f32:	e9cd 2305 	strd	r2, r3, [sp, #20]
 8002f36:	f10a 0a01 	add.w	sl, sl, #1
 8002f3a:	9304      	str	r3, [sp, #16]
 8002f3c:	9307      	str	r3, [sp, #28]
 8002f3e:	f88d 3053 	strb.w	r3, [sp, #83]	; 0x53
 8002f42:	931a      	str	r3, [sp, #104]	; 0x68
 8002f44:	4654      	mov	r4, sl
 8002f46:	2205      	movs	r2, #5
 8002f48:	f814 1b01 	ldrb.w	r1, [r4], #1
 8002f4c:	4851      	ldr	r0, [pc, #324]	; (8003094 <_svfiprintf_r+0x1ec>)
 8002f4e:	f001 fb27 	bl	80045a0 <memchr>
 8002f52:	9a04      	ldr	r2, [sp, #16]
 8002f54:	b9d8      	cbnz	r0, 8002f8e <_svfiprintf_r+0xe6>
 8002f56:	06d0      	lsls	r0, r2, #27
 8002f58:	bf44      	itt	mi
 8002f5a:	2320      	movmi	r3, #32
 8002f5c:	f88d 3053 	strbmi.w	r3, [sp, #83]	; 0x53
 8002f60:	0711      	lsls	r1, r2, #28
 8002f62:	bf44      	itt	mi
 8002f64:	232b      	movmi	r3, #43	; 0x2b
 8002f66:	f88d 3053 	strbmi.w	r3, [sp, #83]	; 0x53
 8002f6a:	f89a 3000 	ldrb.w	r3, [sl]
 8002f6e:	2b2a      	cmp	r3, #42	; 0x2a
 8002f70:	d015      	beq.n	8002f9e <_svfiprintf_r+0xf6>
 8002f72:	4654      	mov	r4, sl
 8002f74:	2000      	movs	r0, #0
 8002f76:	f04f 0c0a 	mov.w	ip, #10
 8002f7a:	9a07      	ldr	r2, [sp, #28]
 8002f7c:	4621      	mov	r1, r4
 8002f7e:	f811 3b01 	ldrb.w	r3, [r1], #1
 8002f82:	3b30      	subs	r3, #48	; 0x30
 8002f84:	2b09      	cmp	r3, #9
 8002f86:	d94e      	bls.n	8003026 <_svfiprintf_r+0x17e>
 8002f88:	b1b0      	cbz	r0, 8002fb8 <_svfiprintf_r+0x110>
 8002f8a:	9207      	str	r2, [sp, #28]
 8002f8c:	e014      	b.n	8002fb8 <_svfiprintf_r+0x110>
 8002f8e:	eba0 0308 	sub.w	r3, r0, r8
 8002f92:	fa09 f303 	lsl.w	r3, r9, r3
 8002f96:	4313      	orrs	r3, r2
 8002f98:	46a2      	mov	sl, r4
 8002f9a:	9304      	str	r3, [sp, #16]
 8002f9c:	e7d2      	b.n	8002f44 <_svfiprintf_r+0x9c>
 8002f9e:	9b03      	ldr	r3, [sp, #12]
 8002fa0:	1d19      	adds	r1, r3, #4
 8002fa2:	681b      	ldr	r3, [r3, #0]
 8002fa4:	9103      	str	r1, [sp, #12]
 8002fa6:	2b00      	cmp	r3, #0
 8002fa8:	bfbb      	ittet	lt
 8002faa:	425b      	neglt	r3, r3
 8002fac:	f042 0202 	orrlt.w	r2, r2, #2
 8002fb0:	9307      	strge	r3, [sp, #28]
 8002fb2:	9307      	strlt	r3, [sp, #28]
 8002fb4:	bfb8      	it	lt
 8002fb6:	9204      	strlt	r2, [sp, #16]
 8002fb8:	7823      	ldrb	r3, [r4, #0]
 8002fba:	2b2e      	cmp	r3, #46	; 0x2e
 8002fbc:	d10c      	bne.n	8002fd8 <_svfiprintf_r+0x130>
 8002fbe:	7863      	ldrb	r3, [r4, #1]
 8002fc0:	2b2a      	cmp	r3, #42	; 0x2a
 8002fc2:	d135      	bne.n	8003030 <_svfiprintf_r+0x188>
 8002fc4:	9b03      	ldr	r3, [sp, #12]
 8002fc6:	3402      	adds	r4, #2
 8002fc8:	1d1a      	adds	r2, r3, #4
 8002fca:	681b      	ldr	r3, [r3, #0]
 8002fcc:	9203      	str	r2, [sp, #12]
 8002fce:	2b00      	cmp	r3, #0
 8002fd0:	bfb8      	it	lt
 8002fd2:	f04f 33ff 	movlt.w	r3, #4294967295
 8002fd6:	9305      	str	r3, [sp, #20]
 8002fd8:	f8df a0bc 	ldr.w	sl, [pc, #188]	; 8003098 <_svfiprintf_r+0x1f0>
 8002fdc:	2203      	movs	r2, #3
 8002fde:	4650      	mov	r0, sl
 8002fe0:	7821      	ldrb	r1, [r4, #0]
 8002fe2:	f001 fadd 	bl	80045a0 <memchr>
 8002fe6:	b140      	cbz	r0, 8002ffa <_svfiprintf_r+0x152>
 8002fe8:	2340      	movs	r3, #64	; 0x40
 8002fea:	eba0 000a 	sub.w	r0, r0, sl
 8002fee:	fa03 f000 	lsl.w	r0, r3, r0
 8002ff2:	9b04      	ldr	r3, [sp, #16]
 8002ff4:	3401      	adds	r4, #1
 8002ff6:	4303      	orrs	r3, r0
 8002ff8:	9304      	str	r3, [sp, #16]
 8002ffa:	f814 1b01 	ldrb.w	r1, [r4], #1
 8002ffe:	2206      	movs	r2, #6
 8003000:	4826      	ldr	r0, [pc, #152]	; (800309c <_svfiprintf_r+0x1f4>)
 8003002:	f88d 1028 	strb.w	r1, [sp, #40]	; 0x28
 8003006:	f001 facb 	bl	80045a0 <memchr>
 800300a:	2800      	cmp	r0, #0
 800300c:	d038      	beq.n	8003080 <_svfiprintf_r+0x1d8>
 800300e:	4b24      	ldr	r3, [pc, #144]	; (80030a0 <_svfiprintf_r+0x1f8>)
 8003010:	bb1b      	cbnz	r3, 800305a <_svfiprintf_r+0x1b2>
 8003012:	9b03      	ldr	r3, [sp, #12]
 8003014:	3307      	adds	r3, #7
 8003016:	f023 0307 	bic.w	r3, r3, #7
 800301a:	3308      	adds	r3, #8
 800301c:	9303      	str	r3, [sp, #12]
 800301e:	9b09      	ldr	r3, [sp, #36]	; 0x24
 8003020:	4433      	add	r3, r6
 8003022:	9309      	str	r3, [sp, #36]	; 0x24
 8003024:	e767      	b.n	8002ef6 <_svfiprintf_r+0x4e>
 8003026:	460c      	mov	r4, r1
 8003028:	2001      	movs	r0, #1
 800302a:	fb0c 3202 	mla	r2, ip, r2, r3
 800302e:	e7a5      	b.n	8002f7c <_svfiprintf_r+0xd4>
 8003030:	2300      	movs	r3, #0
 8003032:	f04f 0c0a 	mov.w	ip, #10
 8003036:	4619      	mov	r1, r3
 8003038:	3401      	adds	r4, #1
 800303a:	9305      	str	r3, [sp, #20]
 800303c:	4620      	mov	r0, r4
 800303e:	f810 2b01 	ldrb.w	r2, [r0], #1
 8003042:	3a30      	subs	r2, #48	; 0x30
 8003044:	2a09      	cmp	r2, #9
 8003046:	d903      	bls.n	8003050 <_svfiprintf_r+0x1a8>
 8003048:	2b00      	cmp	r3, #0
 800304a:	d0c5      	beq.n	8002fd8 <_svfiprintf_r+0x130>
 800304c:	9105      	str	r1, [sp, #20]
 800304e:	e7c3      	b.n	8002fd8 <_svfiprintf_r+0x130>
 8003050:	4604      	mov	r4, r0
 8003052:	2301      	movs	r3, #1
 8003054:	fb0c 2101 	mla	r1, ip, r1, r2
 8003058:	e7f0      	b.n	800303c <_svfiprintf_r+0x194>
 800305a:	ab03      	add	r3, sp, #12
 800305c:	9300      	str	r3, [sp, #0]
 800305e:	462a      	mov	r2, r5
 8003060:	4638      	mov	r0, r7
 8003062:	4b10      	ldr	r3, [pc, #64]	; (80030a4 <_svfiprintf_r+0x1fc>)
 8003064:	a904      	add	r1, sp, #16
 8003066:	f3af 8000 	nop.w
 800306a:	1c42      	adds	r2, r0, #1
 800306c:	4606      	mov	r6, r0
 800306e:	d1d6      	bne.n	800301e <_svfiprintf_r+0x176>
 8003070:	89ab      	ldrh	r3, [r5, #12]
 8003072:	065b      	lsls	r3, r3, #25
 8003074:	f53f af2c 	bmi.w	8002ed0 <_svfiprintf_r+0x28>
 8003078:	9809      	ldr	r0, [sp, #36]	; 0x24
 800307a:	b01d      	add	sp, #116	; 0x74
 800307c:	e8bd 8ff0 	ldmia.w	sp!, {r4, r5, r6, r7, r8, r9, sl, fp, pc}
 8003080:	ab03      	add	r3, sp, #12
 8003082:	9300      	str	r3, [sp, #0]
 8003084:	462a      	mov	r2, r5
 8003086:	4638      	mov	r0, r7
 8003088:	4b06      	ldr	r3, [pc, #24]	; (80030a4 <_svfiprintf_r+0x1fc>)
 800308a:	a904      	add	r1, sp, #16
 800308c:	f000 fba8 	bl	80037e0 <_printf_i>
 8003090:	e7eb      	b.n	800306a <_svfiprintf_r+0x1c2>
 8003092:	bf00      	nop
 8003094:	08004abc 	.word	0x08004abc
 8003098:	08004ac2 	.word	0x08004ac2
 800309c:	08004ac6 	.word	0x08004ac6
 80030a0:	00000000 	.word	0x00000000
 80030a4:	08002df1 	.word	0x08002df1

080030a8 <_sungetc_r>:
 80030a8:	b538      	push	{r3, r4, r5, lr}
 80030aa:	1c4b      	adds	r3, r1, #1
 80030ac:	4614      	mov	r4, r2
 80030ae:	d103      	bne.n	80030b8 <_sungetc_r+0x10>
 80030b0:	f04f 35ff 	mov.w	r5, #4294967295
 80030b4:	4628      	mov	r0, r5
 80030b6:	bd38      	pop	{r3, r4, r5, pc}
 80030b8:	8993      	ldrh	r3, [r2, #12]
 80030ba:	b2cd      	uxtb	r5, r1
 80030bc:	f023 0320 	bic.w	r3, r3, #32
 80030c0:	8193      	strh	r3, [r2, #12]
 80030c2:	6b63      	ldr	r3, [r4, #52]	; 0x34
 80030c4:	6852      	ldr	r2, [r2, #4]
 80030c6:	b18b      	cbz	r3, 80030ec <_sungetc_r+0x44>
 80030c8:	6ba3      	ldr	r3, [r4, #56]	; 0x38
 80030ca:	4293      	cmp	r3, r2
 80030cc:	dd08      	ble.n	80030e0 <_sungetc_r+0x38>
 80030ce:	6823      	ldr	r3, [r4, #0]
 80030d0:	1e5a      	subs	r2, r3, #1
 80030d2:	6022      	str	r2, [r4, #0]
 80030d4:	f803 5c01 	strb.w	r5, [r3, #-1]
 80030d8:	6863      	ldr	r3, [r4, #4]
 80030da:	3301      	adds	r3, #1
 80030dc:	6063      	str	r3, [r4, #4]
 80030de:	e7e9      	b.n	80030b4 <_sungetc_r+0xc>
 80030e0:	4621      	mov	r1, r4
 80030e2:	f000 ff41 	bl	8003f68 <__submore>
 80030e6:	2800      	cmp	r0, #0
 80030e8:	d0f1      	beq.n	80030ce <_sungetc_r+0x26>
 80030ea:	e7e1      	b.n	80030b0 <_sungetc_r+0x8>
 80030ec:	6921      	ldr	r1, [r4, #16]
 80030ee:	6823      	ldr	r3, [r4, #0]
 80030f0:	b151      	cbz	r1, 8003108 <_sungetc_r+0x60>
 80030f2:	4299      	cmp	r1, r3
 80030f4:	d208      	bcs.n	8003108 <_sungetc_r+0x60>
 80030f6:	f813 1c01 	ldrb.w	r1, [r3, #-1]
 80030fa:	42a9      	cmp	r1, r5
 80030fc:	d104      	bne.n	8003108 <_sungetc_r+0x60>
 80030fe:	3b01      	subs	r3, #1
 8003100:	3201      	adds	r2, #1
 8003102:	6023      	str	r3, [r4, #0]
 8003104:	6062      	str	r2, [r4, #4]
 8003106:	e7d5      	b.n	80030b4 <_sungetc_r+0xc>
 8003108:	e9c4 320f 	strd	r3, r2, [r4, #60]	; 0x3c
 800310c:	f104 0344 	add.w	r3, r4, #68	; 0x44
 8003110:	6363      	str	r3, [r4, #52]	; 0x34
 8003112:	2303      	movs	r3, #3
 8003114:	63a3      	str	r3, [r4, #56]	; 0x38
 8003116:	4623      	mov	r3, r4
 8003118:	f803 5f46 	strb.w	r5, [r3, #70]!
 800311c:	6023      	str	r3, [r4, #0]
 800311e:	2301      	movs	r3, #1
 8003120:	e7dc      	b.n	80030dc <_sungetc_r+0x34>

08003122 <__ssrefill_r>:
 8003122:	b510      	push	{r4, lr}
 8003124:	460c      	mov	r4, r1
 8003126:	6b49      	ldr	r1, [r1, #52]	; 0x34
 8003128:	b169      	cbz	r1, 8003146 <__ssrefill_r+0x24>
 800312a:	f104 0344 	add.w	r3, r4, #68	; 0x44
 800312e:	4299      	cmp	r1, r3
 8003130:	d001      	beq.n	8003136 <__ssrefill_r+0x14>
 8003132:	f7ff fd81 	bl	8002c38 <_free_r>
 8003136:	2000      	movs	r0, #0
 8003138:	6c23      	ldr	r3, [r4, #64]	; 0x40
 800313a:	6360      	str	r0, [r4, #52]	; 0x34
 800313c:	6063      	str	r3, [r4, #4]
 800313e:	b113      	cbz	r3, 8003146 <__ssrefill_r+0x24>
 8003140:	6be3      	ldr	r3, [r4, #60]	; 0x3c
 8003142:	6023      	str	r3, [r4, #0]
 8003144:	bd10      	pop	{r4, pc}
 8003146:	6923      	ldr	r3, [r4, #16]
 8003148:	f04f 30ff 	mov.w	r0, #4294967295
 800314c:	6023      	str	r3, [r4, #0]
 800314e:	2300      	movs	r3, #0
 8003150:	6063      	str	r3, [r4, #4]
 8003152:	89a3      	ldrh	r3, [r4, #12]
 8003154:	f043 0320 	orr.w	r3, r3, #32
 8003158:	81a3      	strh	r3, [r4, #12]
 800315a:	e7f3      	b.n	8003144 <__ssrefill_r+0x22>

0800315c <__ssvfiscanf_r>:
 800315c:	e92d 47f0 	stmdb	sp!, {r4, r5, r6, r7, r8, r9, sl, lr}
 8003160:	460c      	mov	r4, r1
 8003162:	2100      	movs	r1, #0
 8003164:	4606      	mov	r6, r0
 8003166:	f5ad 7d22 	sub.w	sp, sp, #648	; 0x288
 800316a:	e9cd 1144 	strd	r1, r1, [sp, #272]	; 0x110
 800316e:	49a7      	ldr	r1, [pc, #668]	; (800340c <__ssvfiscanf_r+0x2b0>)
 8003170:	f10d 0804 	add.w	r8, sp, #4
 8003174:	91a0      	str	r1, [sp, #640]	; 0x280
 8003176:	49a6      	ldr	r1, [pc, #664]	; (8003410 <__ssvfiscanf_r+0x2b4>)
 8003178:	4fa6      	ldr	r7, [pc, #664]	; (8003414 <__ssvfiscanf_r+0x2b8>)
 800317a:	f8df 929c 	ldr.w	r9, [pc, #668]	; 8003418 <__ssvfiscanf_r+0x2bc>
 800317e:	f8cd 8118 	str.w	r8, [sp, #280]	; 0x118
 8003182:	91a1      	str	r1, [sp, #644]	; 0x284
 8003184:	9300      	str	r3, [sp, #0]
 8003186:	7813      	ldrb	r3, [r2, #0]
 8003188:	2b00      	cmp	r3, #0
 800318a:	f000 815c 	beq.w	8003446 <__ssvfiscanf_r+0x2ea>
 800318e:	5dd9      	ldrb	r1, [r3, r7]
 8003190:	1c55      	adds	r5, r2, #1
 8003192:	f011 0108 	ands.w	r1, r1, #8
 8003196:	d019      	beq.n	80031cc <__ssvfiscanf_r+0x70>
 8003198:	6863      	ldr	r3, [r4, #4]
 800319a:	2b00      	cmp	r3, #0
 800319c:	dd0f      	ble.n	80031be <__ssvfiscanf_r+0x62>
 800319e:	6823      	ldr	r3, [r4, #0]
 80031a0:	781a      	ldrb	r2, [r3, #0]
 80031a2:	5cba      	ldrb	r2, [r7, r2]
 80031a4:	0712      	lsls	r2, r2, #28
 80031a6:	d401      	bmi.n	80031ac <__ssvfiscanf_r+0x50>
 80031a8:	462a      	mov	r2, r5
 80031aa:	e7ec      	b.n	8003186 <__ssvfiscanf_r+0x2a>
 80031ac:	9a45      	ldr	r2, [sp, #276]	; 0x114
 80031ae:	3301      	adds	r3, #1
 80031b0:	3201      	adds	r2, #1
 80031b2:	9245      	str	r2, [sp, #276]	; 0x114
 80031b4:	6862      	ldr	r2, [r4, #4]
 80031b6:	6023      	str	r3, [r4, #0]
 80031b8:	3a01      	subs	r2, #1
 80031ba:	6062      	str	r2, [r4, #4]
 80031bc:	e7ec      	b.n	8003198 <__ssvfiscanf_r+0x3c>
 80031be:	4621      	mov	r1, r4
 80031c0:	4630      	mov	r0, r6
 80031c2:	9ba1      	ldr	r3, [sp, #644]	; 0x284
 80031c4:	4798      	blx	r3
 80031c6:	2800      	cmp	r0, #0
 80031c8:	d0e9      	beq.n	800319e <__ssvfiscanf_r+0x42>
 80031ca:	e7ed      	b.n	80031a8 <__ssvfiscanf_r+0x4c>
 80031cc:	2b25      	cmp	r3, #37	; 0x25
 80031ce:	d012      	beq.n	80031f6 <__ssvfiscanf_r+0x9a>
 80031d0:	469a      	mov	sl, r3
 80031d2:	6863      	ldr	r3, [r4, #4]
 80031d4:	2b00      	cmp	r3, #0
 80031d6:	f340 8094 	ble.w	8003302 <__ssvfiscanf_r+0x1a6>
 80031da:	6822      	ldr	r2, [r4, #0]
 80031dc:	7813      	ldrb	r3, [r2, #0]
 80031de:	4553      	cmp	r3, sl
 80031e0:	f040 8131 	bne.w	8003446 <__ssvfiscanf_r+0x2ea>
 80031e4:	6863      	ldr	r3, [r4, #4]
 80031e6:	3201      	adds	r2, #1
 80031e8:	3b01      	subs	r3, #1
 80031ea:	6063      	str	r3, [r4, #4]
 80031ec:	9b45      	ldr	r3, [sp, #276]	; 0x114
 80031ee:	6022      	str	r2, [r4, #0]
 80031f0:	3301      	adds	r3, #1
 80031f2:	9345      	str	r3, [sp, #276]	; 0x114
 80031f4:	e7d8      	b.n	80031a8 <__ssvfiscanf_r+0x4c>
 80031f6:	9141      	str	r1, [sp, #260]	; 0x104
 80031f8:	9143      	str	r1, [sp, #268]	; 0x10c
 80031fa:	7853      	ldrb	r3, [r2, #1]
 80031fc:	2b2a      	cmp	r3, #42	; 0x2a
 80031fe:	bf04      	itt	eq
 8003200:	2310      	moveq	r3, #16
 8003202:	1c95      	addeq	r5, r2, #2
 8003204:	f04f 020a 	mov.w	r2, #10
 8003208:	bf08      	it	eq
 800320a:	9341      	streq	r3, [sp, #260]	; 0x104
 800320c:	46aa      	mov	sl, r5
 800320e:	f81a 1b01 	ldrb.w	r1, [sl], #1
 8003212:	f1a1 0330 	sub.w	r3, r1, #48	; 0x30
 8003216:	2b09      	cmp	r3, #9
 8003218:	d91d      	bls.n	8003256 <__ssvfiscanf_r+0xfa>
 800321a:	2203      	movs	r2, #3
 800321c:	487e      	ldr	r0, [pc, #504]	; (8003418 <__ssvfiscanf_r+0x2bc>)
 800321e:	f001 f9bf 	bl	80045a0 <memchr>
 8003222:	b140      	cbz	r0, 8003236 <__ssvfiscanf_r+0xda>
 8003224:	2301      	movs	r3, #1
 8003226:	4655      	mov	r5, sl
 8003228:	eba0 0009 	sub.w	r0, r0, r9
 800322c:	fa03 f000 	lsl.w	r0, r3, r0
 8003230:	9b41      	ldr	r3, [sp, #260]	; 0x104
 8003232:	4318      	orrs	r0, r3
 8003234:	9041      	str	r0, [sp, #260]	; 0x104
 8003236:	f815 3b01 	ldrb.w	r3, [r5], #1
 800323a:	2b78      	cmp	r3, #120	; 0x78
 800323c:	d806      	bhi.n	800324c <__ssvfiscanf_r+0xf0>
 800323e:	2b57      	cmp	r3, #87	; 0x57
 8003240:	d810      	bhi.n	8003264 <__ssvfiscanf_r+0x108>
 8003242:	2b25      	cmp	r3, #37	; 0x25
 8003244:	d0c4      	beq.n	80031d0 <__ssvfiscanf_r+0x74>
 8003246:	d857      	bhi.n	80032f8 <__ssvfiscanf_r+0x19c>
 8003248:	2b00      	cmp	r3, #0
 800324a:	d065      	beq.n	8003318 <__ssvfiscanf_r+0x1bc>
 800324c:	2303      	movs	r3, #3
 800324e:	9347      	str	r3, [sp, #284]	; 0x11c
 8003250:	230a      	movs	r3, #10
 8003252:	9342      	str	r3, [sp, #264]	; 0x108
 8003254:	e072      	b.n	800333c <__ssvfiscanf_r+0x1e0>
 8003256:	9b43      	ldr	r3, [sp, #268]	; 0x10c
 8003258:	4655      	mov	r5, sl
 800325a:	fb02 1103 	mla	r1, r2, r3, r1
 800325e:	3930      	subs	r1, #48	; 0x30
 8003260:	9143      	str	r1, [sp, #268]	; 0x10c
 8003262:	e7d3      	b.n	800320c <__ssvfiscanf_r+0xb0>
 8003264:	f1a3 0258 	sub.w	r2, r3, #88	; 0x58
 8003268:	2a20      	cmp	r2, #32
 800326a:	d8ef      	bhi.n	800324c <__ssvfiscanf_r+0xf0>
 800326c:	a101      	add	r1, pc, #4	; (adr r1, 8003274 <__ssvfiscanf_r+0x118>)
 800326e:	f851 f022 	ldr.w	pc, [r1, r2, lsl #2]
 8003272:	bf00      	nop
 8003274:	08003327 	.word	0x08003327
 8003278:	0800324d 	.word	0x0800324d
 800327c:	0800324d 	.word	0x0800324d
 8003280:	08003385 	.word	0x08003385
 8003284:	0800324d 	.word	0x0800324d
 8003288:	0800324d 	.word	0x0800324d
 800328c:	0800324d 	.word	0x0800324d
 8003290:	0800324d 	.word	0x0800324d
 8003294:	0800324d 	.word	0x0800324d
 8003298:	0800324d 	.word	0x0800324d
 800329c:	0800324d 	.word	0x0800324d
 80032a0:	0800339b 	.word	0x0800339b
 80032a4:	08003371 	.word	0x08003371
 80032a8:	080032ff 	.word	0x080032ff
 80032ac:	080032ff 	.word	0x080032ff
 80032b0:	080032ff 	.word	0x080032ff
 80032b4:	0800324d 	.word	0x0800324d
 80032b8:	08003375 	.word	0x08003375
 80032bc:	0800324d 	.word	0x0800324d
 80032c0:	0800324d 	.word	0x0800324d
 80032c4:	0800324d 	.word	0x0800324d
 80032c8:	0800324d 	.word	0x0800324d
 80032cc:	080033ab 	.word	0x080033ab
 80032d0:	0800337d 	.word	0x0800337d
 80032d4:	0800331f 	.word	0x0800331f
 80032d8:	0800324d 	.word	0x0800324d
 80032dc:	0800324d 	.word	0x0800324d
 80032e0:	080033a7 	.word	0x080033a7
 80032e4:	0800324d 	.word	0x0800324d
 80032e8:	08003371 	.word	0x08003371
 80032ec:	0800324d 	.word	0x0800324d
 80032f0:	0800324d 	.word	0x0800324d
 80032f4:	08003327 	.word	0x08003327
 80032f8:	3b45      	subs	r3, #69	; 0x45
 80032fa:	2b02      	cmp	r3, #2
 80032fc:	d8a6      	bhi.n	800324c <__ssvfiscanf_r+0xf0>
 80032fe:	2305      	movs	r3, #5
 8003300:	e01b      	b.n	800333a <__ssvfiscanf_r+0x1de>
 8003302:	4621      	mov	r1, r4
 8003304:	4630      	mov	r0, r6
 8003306:	9ba1      	ldr	r3, [sp, #644]	; 0x284
 8003308:	4798      	blx	r3
 800330a:	2800      	cmp	r0, #0
 800330c:	f43f af65 	beq.w	80031da <__ssvfiscanf_r+0x7e>
 8003310:	9844      	ldr	r0, [sp, #272]	; 0x110
 8003312:	2800      	cmp	r0, #0
 8003314:	f040 808d 	bne.w	8003432 <__ssvfiscanf_r+0x2d6>
 8003318:	f04f 30ff 	mov.w	r0, #4294967295
 800331c:	e08f      	b.n	800343e <__ssvfiscanf_r+0x2e2>
 800331e:	9a41      	ldr	r2, [sp, #260]	; 0x104
 8003320:	f042 0220 	orr.w	r2, r2, #32
 8003324:	9241      	str	r2, [sp, #260]	; 0x104
 8003326:	9a41      	ldr	r2, [sp, #260]	; 0x104
 8003328:	f442 7200 	orr.w	r2, r2, #512	; 0x200
 800332c:	9241      	str	r2, [sp, #260]	; 0x104
 800332e:	2210      	movs	r2, #16
 8003330:	2b6f      	cmp	r3, #111	; 0x6f
 8003332:	bf34      	ite	cc
 8003334:	2303      	movcc	r3, #3
 8003336:	2304      	movcs	r3, #4
 8003338:	9242      	str	r2, [sp, #264]	; 0x108
 800333a:	9347      	str	r3, [sp, #284]	; 0x11c
 800333c:	6863      	ldr	r3, [r4, #4]
 800333e:	2b00      	cmp	r3, #0
 8003340:	dd42      	ble.n	80033c8 <__ssvfiscanf_r+0x26c>
 8003342:	9b41      	ldr	r3, [sp, #260]	; 0x104
 8003344:	0659      	lsls	r1, r3, #25
 8003346:	d404      	bmi.n	8003352 <__ssvfiscanf_r+0x1f6>
 8003348:	6823      	ldr	r3, [r4, #0]
 800334a:	781a      	ldrb	r2, [r3, #0]
 800334c:	5cba      	ldrb	r2, [r7, r2]
 800334e:	0712      	lsls	r2, r2, #28
 8003350:	d441      	bmi.n	80033d6 <__ssvfiscanf_r+0x27a>
 8003352:	9b47      	ldr	r3, [sp, #284]	; 0x11c
 8003354:	2b02      	cmp	r3, #2
 8003356:	dc50      	bgt.n	80033fa <__ssvfiscanf_r+0x29e>
 8003358:	466b      	mov	r3, sp
 800335a:	4622      	mov	r2, r4
 800335c:	4630      	mov	r0, r6
 800335e:	a941      	add	r1, sp, #260	; 0x104
 8003360:	f000 fb64 	bl	8003a2c <_scanf_chars>
 8003364:	2801      	cmp	r0, #1
 8003366:	d06e      	beq.n	8003446 <__ssvfiscanf_r+0x2ea>
 8003368:	2802      	cmp	r0, #2
 800336a:	f47f af1d 	bne.w	80031a8 <__ssvfiscanf_r+0x4c>
 800336e:	e7cf      	b.n	8003310 <__ssvfiscanf_r+0x1b4>
 8003370:	220a      	movs	r2, #10
 8003372:	e7dd      	b.n	8003330 <__ssvfiscanf_r+0x1d4>
 8003374:	2300      	movs	r3, #0
 8003376:	9342      	str	r3, [sp, #264]	; 0x108
 8003378:	2303      	movs	r3, #3
 800337a:	e7de      	b.n	800333a <__ssvfiscanf_r+0x1de>
 800337c:	2308      	movs	r3, #8
 800337e:	9342      	str	r3, [sp, #264]	; 0x108
 8003380:	2304      	movs	r3, #4
 8003382:	e7da      	b.n	800333a <__ssvfiscanf_r+0x1de>
 8003384:	4629      	mov	r1, r5
 8003386:	4640      	mov	r0, r8
 8003388:	f000 fcc4 	bl	8003d14 <__sccl>
 800338c:	9b41      	ldr	r3, [sp, #260]	; 0x104
 800338e:	4605      	mov	r5, r0
 8003390:	f043 0340 	orr.w	r3, r3, #64	; 0x40
 8003394:	9341      	str	r3, [sp, #260]	; 0x104
 8003396:	2301      	movs	r3, #1
 8003398:	e7cf      	b.n	800333a <__ssvfiscanf_r+0x1de>
 800339a:	9b41      	ldr	r3, [sp, #260]	; 0x104
 800339c:	f043 0340 	orr.w	r3, r3, #64	; 0x40
 80033a0:	9341      	str	r3, [sp, #260]	; 0x104
 80033a2:	2300      	movs	r3, #0
 80033a4:	e7c9      	b.n	800333a <__ssvfiscanf_r+0x1de>
 80033a6:	2302      	movs	r3, #2
 80033a8:	e7c7      	b.n	800333a <__ssvfiscanf_r+0x1de>
 80033aa:	9841      	ldr	r0, [sp, #260]	; 0x104
 80033ac:	06c3      	lsls	r3, r0, #27
 80033ae:	f53f aefb 	bmi.w	80031a8 <__ssvfiscanf_r+0x4c>
 80033b2:	9b00      	ldr	r3, [sp, #0]
 80033b4:	9a45      	ldr	r2, [sp, #276]	; 0x114
 80033b6:	1d19      	adds	r1, r3, #4
 80033b8:	9100      	str	r1, [sp, #0]
 80033ba:	681b      	ldr	r3, [r3, #0]
 80033bc:	f010 0f01 	tst.w	r0, #1
 80033c0:	bf14      	ite	ne
 80033c2:	801a      	strhne	r2, [r3, #0]
 80033c4:	601a      	streq	r2, [r3, #0]
 80033c6:	e6ef      	b.n	80031a8 <__ssvfiscanf_r+0x4c>
 80033c8:	4621      	mov	r1, r4
 80033ca:	4630      	mov	r0, r6
 80033cc:	9ba1      	ldr	r3, [sp, #644]	; 0x284
 80033ce:	4798      	blx	r3
 80033d0:	2800      	cmp	r0, #0
 80033d2:	d0b6      	beq.n	8003342 <__ssvfiscanf_r+0x1e6>
 80033d4:	e79c      	b.n	8003310 <__ssvfiscanf_r+0x1b4>
 80033d6:	9a45      	ldr	r2, [sp, #276]	; 0x114
 80033d8:	3201      	adds	r2, #1
 80033da:	9245      	str	r2, [sp, #276]	; 0x114
 80033dc:	6862      	ldr	r2, [r4, #4]
 80033de:	3a01      	subs	r2, #1
 80033e0:	2a00      	cmp	r2, #0
 80033e2:	6062      	str	r2, [r4, #4]
 80033e4:	dd02      	ble.n	80033ec <__ssvfiscanf_r+0x290>
 80033e6:	3301      	adds	r3, #1
 80033e8:	6023      	str	r3, [r4, #0]
 80033ea:	e7ad      	b.n	8003348 <__ssvfiscanf_r+0x1ec>
 80033ec:	4621      	mov	r1, r4
 80033ee:	4630      	mov	r0, r6
 80033f0:	9ba1      	ldr	r3, [sp, #644]	; 0x284
 80033f2:	4798      	blx	r3
 80033f4:	2800      	cmp	r0, #0
 80033f6:	d0a7      	beq.n	8003348 <__ssvfiscanf_r+0x1ec>
 80033f8:	e78a      	b.n	8003310 <__ssvfiscanf_r+0x1b4>
 80033fa:	2b04      	cmp	r3, #4
 80033fc:	dc0e      	bgt.n	800341c <__ssvfiscanf_r+0x2c0>
 80033fe:	466b      	mov	r3, sp
 8003400:	4622      	mov	r2, r4
 8003402:	4630      	mov	r0, r6
 8003404:	a941      	add	r1, sp, #260	; 0x104
 8003406:	f000 fb6b 	bl	8003ae0 <_scanf_i>
 800340a:	e7ab      	b.n	8003364 <__ssvfiscanf_r+0x208>
 800340c:	080030a9 	.word	0x080030a9
 8003410:	08003123 	.word	0x08003123
 8003414:	08004b08 	.word	0x08004b08
 8003418:	08004ac2 	.word	0x08004ac2
 800341c:	4b0b      	ldr	r3, [pc, #44]	; (800344c <__ssvfiscanf_r+0x2f0>)
 800341e:	2b00      	cmp	r3, #0
 8003420:	f43f aec2 	beq.w	80031a8 <__ssvfiscanf_r+0x4c>
 8003424:	466b      	mov	r3, sp
 8003426:	4622      	mov	r2, r4
 8003428:	4630      	mov	r0, r6
 800342a:	a941      	add	r1, sp, #260	; 0x104
 800342c:	f3af 8000 	nop.w
 8003430:	e798      	b.n	8003364 <__ssvfiscanf_r+0x208>
 8003432:	89a3      	ldrh	r3, [r4, #12]
 8003434:	f013 0f40 	tst.w	r3, #64	; 0x40
 8003438:	bf18      	it	ne
 800343a:	f04f 30ff 	movne.w	r0, #4294967295
 800343e:	f50d 7d22 	add.w	sp, sp, #648	; 0x288
 8003442:	e8bd 87f0 	ldmia.w	sp!, {r4, r5, r6, r7, r8, r9, sl, pc}
 8003446:	9844      	ldr	r0, [sp, #272]	; 0x110
 8003448:	e7f9      	b.n	800343e <__ssvfiscanf_r+0x2e2>
 800344a:	bf00      	nop
 800344c:	00000000 	.word	0x00000000

08003450 <__sfputc_r>:
 8003450:	6893      	ldr	r3, [r2, #8]
 8003452:	b410      	push	{r4}
 8003454:	3b01      	subs	r3, #1
 8003456:	2b00      	cmp	r3, #0
 8003458:	6093      	str	r3, [r2, #8]
 800345a:	da07      	bge.n	800346c <__sfputc_r+0x1c>
 800345c:	6994      	ldr	r4, [r2, #24]
 800345e:	42a3      	cmp	r3, r4
 8003460:	db01      	blt.n	8003466 <__sfputc_r+0x16>
 8003462:	290a      	cmp	r1, #10
 8003464:	d102      	bne.n	800346c <__sfputc_r+0x1c>
 8003466:	bc10      	pop	{r4}
 8003468:	f000 bdb6 	b.w	8003fd8 <__swbuf_r>
 800346c:	6813      	ldr	r3, [r2, #0]
 800346e:	1c58      	adds	r0, r3, #1
 8003470:	6010      	str	r0, [r2, #0]
 8003472:	7019      	strb	r1, [r3, #0]
 8003474:	4608      	mov	r0, r1
 8003476:	bc10      	pop	{r4}
 8003478:	4770      	bx	lr

0800347a <__sfputs_r>:
 800347a:	b5f8      	push	{r3, r4, r5, r6, r7, lr}
 800347c:	4606      	mov	r6, r0
 800347e:	460f      	mov	r7, r1
 8003480:	4614      	mov	r4, r2
 8003482:	18d5      	adds	r5, r2, r3
 8003484:	42ac      	cmp	r4, r5
 8003486:	d101      	bne.n	800348c <__sfputs_r+0x12>
 8003488:	2000      	movs	r0, #0
 800348a:	e007      	b.n	800349c <__sfputs_r+0x22>
 800348c:	463a      	mov	r2, r7
 800348e:	4630      	mov	r0, r6
 8003490:	f814 1b01 	ldrb.w	r1, [r4], #1
 8003494:	f7ff ffdc 	bl	8003450 <__sfputc_r>
 8003498:	1c43      	adds	r3, r0, #1
 800349a:	d1f3      	bne.n	8003484 <__sfputs_r+0xa>
 800349c:	bdf8      	pop	{r3, r4, r5, r6, r7, pc}
	...

080034a0 <_vfiprintf_r>:
 80034a0:	e92d 4ff0 	stmdb	sp!, {r4, r5, r6, r7, r8, r9, sl, fp, lr}
 80034a4:	460d      	mov	r5, r1
 80034a6:	4614      	mov	r4, r2
 80034a8:	4698      	mov	r8, r3
 80034aa:	4606      	mov	r6, r0
 80034ac:	b09d      	sub	sp, #116	; 0x74
 80034ae:	b118      	cbz	r0, 80034b8 <_vfiprintf_r+0x18>
 80034b0:	6983      	ldr	r3, [r0, #24]
 80034b2:	b90b      	cbnz	r3, 80034b8 <_vfiprintf_r+0x18>
 80034b4:	f000 ff6e 	bl	8004394 <__sinit>
 80034b8:	4b89      	ldr	r3, [pc, #548]	; (80036e0 <_vfiprintf_r+0x240>)
 80034ba:	429d      	cmp	r5, r3
 80034bc:	d11b      	bne.n	80034f6 <_vfiprintf_r+0x56>
 80034be:	6875      	ldr	r5, [r6, #4]
 80034c0:	6e6b      	ldr	r3, [r5, #100]	; 0x64
 80034c2:	07d9      	lsls	r1, r3, #31
 80034c4:	d405      	bmi.n	80034d2 <_vfiprintf_r+0x32>
 80034c6:	89ab      	ldrh	r3, [r5, #12]
 80034c8:	059a      	lsls	r2, r3, #22
 80034ca:	d402      	bmi.n	80034d2 <_vfiprintf_r+0x32>
 80034cc:	6da8      	ldr	r0, [r5, #88]	; 0x58
 80034ce:	f000 ffff 	bl	80044d0 <__retarget_lock_acquire_recursive>
 80034d2:	89ab      	ldrh	r3, [r5, #12]
 80034d4:	071b      	lsls	r3, r3, #28
 80034d6:	d501      	bpl.n	80034dc <_vfiprintf_r+0x3c>
 80034d8:	692b      	ldr	r3, [r5, #16]
 80034da:	b9eb      	cbnz	r3, 8003518 <_vfiprintf_r+0x78>
 80034dc:	4629      	mov	r1, r5
 80034de:	4630      	mov	r0, r6
 80034e0:	f000 fdcc 	bl	800407c <__swsetup_r>
 80034e4:	b1c0      	cbz	r0, 8003518 <_vfiprintf_r+0x78>
 80034e6:	6e6b      	ldr	r3, [r5, #100]	; 0x64
 80034e8:	07dc      	lsls	r4, r3, #31
 80034ea:	d50e      	bpl.n	800350a <_vfiprintf_r+0x6a>
 80034ec:	f04f 30ff 	mov.w	r0, #4294967295
 80034f0:	b01d      	add	sp, #116	; 0x74
 80034f2:	e8bd 8ff0 	ldmia.w	sp!, {r4, r5, r6, r7, r8, r9, sl, fp, pc}
 80034f6:	4b7b      	ldr	r3, [pc, #492]	; (80036e4 <_vfiprintf_r+0x244>)
 80034f8:	429d      	cmp	r5, r3
 80034fa:	d101      	bne.n	8003500 <_vfiprintf_r+0x60>
 80034fc:	68b5      	ldr	r5, [r6, #8]
 80034fe:	e7df      	b.n	80034c0 <_vfiprintf_r+0x20>
 8003500:	4b79      	ldr	r3, [pc, #484]	; (80036e8 <_vfiprintf_r+0x248>)
 8003502:	429d      	cmp	r5, r3
 8003504:	bf08      	it	eq
 8003506:	68f5      	ldreq	r5, [r6, #12]
 8003508:	e7da      	b.n	80034c0 <_vfiprintf_r+0x20>
 800350a:	89ab      	ldrh	r3, [r5, #12]
 800350c:	0598      	lsls	r0, r3, #22
 800350e:	d4ed      	bmi.n	80034ec <_vfiprintf_r+0x4c>
 8003510:	6da8      	ldr	r0, [r5, #88]	; 0x58
 8003512:	f000 ffde 	bl	80044d2 <__retarget_lock_release_recursive>
 8003516:	e7e9      	b.n	80034ec <_vfiprintf_r+0x4c>
 8003518:	2300      	movs	r3, #0
 800351a:	9309      	str	r3, [sp, #36]	; 0x24
 800351c:	2320      	movs	r3, #32
 800351e:	f88d 3029 	strb.w	r3, [sp, #41]	; 0x29
 8003522:	2330      	movs	r3, #48	; 0x30
 8003524:	f04f 0901 	mov.w	r9, #1
 8003528:	f8cd 800c 	str.w	r8, [sp, #12]
 800352c:	f8df 81bc 	ldr.w	r8, [pc, #444]	; 80036ec <_vfiprintf_r+0x24c>
 8003530:	f88d 302a 	strb.w	r3, [sp, #42]	; 0x2a
 8003534:	4623      	mov	r3, r4
 8003536:	469a      	mov	sl, r3
 8003538:	f813 2b01 	ldrb.w	r2, [r3], #1
 800353c:	b10a      	cbz	r2, 8003542 <_vfiprintf_r+0xa2>
 800353e:	2a25      	cmp	r2, #37	; 0x25
 8003540:	d1f9      	bne.n	8003536 <_vfiprintf_r+0x96>
 8003542:	ebba 0b04 	subs.w	fp, sl, r4
 8003546:	d00b      	beq.n	8003560 <_vfiprintf_r+0xc0>
 8003548:	465b      	mov	r3, fp
 800354a:	4622      	mov	r2, r4
 800354c:	4629      	mov	r1, r5
 800354e:	4630      	mov	r0, r6
 8003550:	f7ff ff93 	bl	800347a <__sfputs_r>
 8003554:	3001      	adds	r0, #1
 8003556:	f000 80aa 	beq.w	80036ae <_vfiprintf_r+0x20e>
 800355a:	9a09      	ldr	r2, [sp, #36]	; 0x24
 800355c:	445a      	add	r2, fp
 800355e:	9209      	str	r2, [sp, #36]	; 0x24
 8003560:	f89a 3000 	ldrb.w	r3, [sl]
 8003564:	2b00      	cmp	r3, #0
 8003566:	f000 80a2 	beq.w	80036ae <_vfiprintf_r+0x20e>
 800356a:	2300      	movs	r3, #0
 800356c:	f04f 32ff 	mov.w	r2, #4294967295
 8003570:	e9cd 2305 	strd	r2, r3, [sp, #20]
 8003574:	f10a 0a01 	add.w	sl, sl, #1
 8003578:	9304      	str	r3, [sp, #16]
 800357a:	9307      	str	r3, [sp, #28]
 800357c:	f88d 3053 	strb.w	r3, [sp, #83]	; 0x53
 8003580:	931a      	str	r3, [sp, #104]	; 0x68
 8003582:	4654      	mov	r4, sl
 8003584:	2205      	movs	r2, #5
 8003586:	f814 1b01 	ldrb.w	r1, [r4], #1
 800358a:	4858      	ldr	r0, [pc, #352]	; (80036ec <_vfiprintf_r+0x24c>)
 800358c:	f001 f808 	bl	80045a0 <memchr>
 8003590:	9a04      	ldr	r2, [sp, #16]
 8003592:	b9d8      	cbnz	r0, 80035cc <_vfiprintf_r+0x12c>
 8003594:	06d1      	lsls	r1, r2, #27
 8003596:	bf44      	itt	mi
 8003598:	2320      	movmi	r3, #32
 800359a:	f88d 3053 	strbmi.w	r3, [sp, #83]	; 0x53
 800359e:	0713      	lsls	r3, r2, #28
 80035a0:	bf44      	itt	mi
 80035a2:	232b      	movmi	r3, #43	; 0x2b
 80035a4:	f88d 3053 	strbmi.w	r3, [sp, #83]	; 0x53
 80035a8:	f89a 3000 	ldrb.w	r3, [sl]
 80035ac:	2b2a      	cmp	r3, #42	; 0x2a
 80035ae:	d015      	beq.n	80035dc <_vfiprintf_r+0x13c>
 80035b0:	4654      	mov	r4, sl
 80035b2:	2000      	movs	r0, #0
 80035b4:	f04f 0c0a 	mov.w	ip, #10
 80035b8:	9a07      	ldr	r2, [sp, #28]
 80035ba:	4621      	mov	r1, r4
 80035bc:	f811 3b01 	ldrb.w	r3, [r1], #1
 80035c0:	3b30      	subs	r3, #48	; 0x30
 80035c2:	2b09      	cmp	r3, #9
 80035c4:	d94e      	bls.n	8003664 <_vfiprintf_r+0x1c4>
 80035c6:	b1b0      	cbz	r0, 80035f6 <_vfiprintf_r+0x156>
 80035c8:	9207      	str	r2, [sp, #28]
 80035ca:	e014      	b.n	80035f6 <_vfiprintf_r+0x156>
 80035cc:	eba0 0308 	sub.w	r3, r0, r8
 80035d0:	fa09 f303 	lsl.w	r3, r9, r3
 80035d4:	4313      	orrs	r3, r2
 80035d6:	46a2      	mov	sl, r4
 80035d8:	9304      	str	r3, [sp, #16]
 80035da:	e7d2      	b.n	8003582 <_vfiprintf_r+0xe2>
 80035dc:	9b03      	ldr	r3, [sp, #12]
 80035de:	1d19      	adds	r1, r3, #4
 80035e0:	681b      	ldr	r3, [r3, #0]
 80035e2:	9103      	str	r1, [sp, #12]
 80035e4:	2b00      	cmp	r3, #0
 80035e6:	bfbb      	ittet	lt
 80035e8:	425b      	neglt	r3, r3
 80035ea:	f042 0202 	orrlt.w	r2, r2, #2
 80035ee:	9307      	strge	r3, [sp, #28]
 80035f0:	9307      	strlt	r3, [sp, #28]
 80035f2:	bfb8      	it	lt
 80035f4:	9204      	strlt	r2, [sp, #16]
 80035f6:	7823      	ldrb	r3, [r4, #0]
 80035f8:	2b2e      	cmp	r3, #46	; 0x2e
 80035fa:	d10c      	bne.n	8003616 <_vfiprintf_r+0x176>
 80035fc:	7863      	ldrb	r3, [r4, #1]
 80035fe:	2b2a      	cmp	r3, #42	; 0x2a
 8003600:	d135      	bne.n	800366e <_vfiprintf_r+0x1ce>
 8003602:	9b03      	ldr	r3, [sp, #12]
 8003604:	3402      	adds	r4, #2
 8003606:	1d1a      	adds	r2, r3, #4
 8003608:	681b      	ldr	r3, [r3, #0]
 800360a:	9203      	str	r2, [sp, #12]
 800360c:	2b00      	cmp	r3, #0
 800360e:	bfb8      	it	lt
 8003610:	f04f 33ff 	movlt.w	r3, #4294967295
 8003614:	9305      	str	r3, [sp, #20]
 8003616:	f8df a0d8 	ldr.w	sl, [pc, #216]	; 80036f0 <_vfiprintf_r+0x250>
 800361a:	2203      	movs	r2, #3
 800361c:	4650      	mov	r0, sl
 800361e:	7821      	ldrb	r1, [r4, #0]
 8003620:	f000 ffbe 	bl	80045a0 <memchr>
 8003624:	b140      	cbz	r0, 8003638 <_vfiprintf_r+0x198>
 8003626:	2340      	movs	r3, #64	; 0x40
 8003628:	eba0 000a 	sub.w	r0, r0, sl
 800362c:	fa03 f000 	lsl.w	r0, r3, r0
 8003630:	9b04      	ldr	r3, [sp, #16]
 8003632:	3401      	adds	r4, #1
 8003634:	4303      	orrs	r3, r0
 8003636:	9304      	str	r3, [sp, #16]
 8003638:	f814 1b01 	ldrb.w	r1, [r4], #1
 800363c:	2206      	movs	r2, #6
 800363e:	482d      	ldr	r0, [pc, #180]	; (80036f4 <_vfiprintf_r+0x254>)
 8003640:	f88d 1028 	strb.w	r1, [sp, #40]	; 0x28
 8003644:	f000 ffac 	bl	80045a0 <memchr>
 8003648:	2800      	cmp	r0, #0
 800364a:	d03f      	beq.n	80036cc <_vfiprintf_r+0x22c>
 800364c:	4b2a      	ldr	r3, [pc, #168]	; (80036f8 <_vfiprintf_r+0x258>)
 800364e:	bb1b      	cbnz	r3, 8003698 <_vfiprintf_r+0x1f8>
 8003650:	9b03      	ldr	r3, [sp, #12]
 8003652:	3307      	adds	r3, #7
 8003654:	f023 0307 	bic.w	r3, r3, #7
 8003658:	3308      	adds	r3, #8
 800365a:	9303      	str	r3, [sp, #12]
 800365c:	9b09      	ldr	r3, [sp, #36]	; 0x24
 800365e:	443b      	add	r3, r7
 8003660:	9309      	str	r3, [sp, #36]	; 0x24
 8003662:	e767      	b.n	8003534 <_vfiprintf_r+0x94>
 8003664:	460c      	mov	r4, r1
 8003666:	2001      	movs	r0, #1
 8003668:	fb0c 3202 	mla	r2, ip, r2, r3
 800366c:	e7a5      	b.n	80035ba <_vfiprintf_r+0x11a>
 800366e:	2300      	movs	r3, #0
 8003670:	f04f 0c0a 	mov.w	ip, #10
 8003674:	4619      	mov	r1, r3
 8003676:	3401      	adds	r4, #1
 8003678:	9305      	str	r3, [sp, #20]
 800367a:	4620      	mov	r0, r4
 800367c:	f810 2b01 	ldrb.w	r2, [r0], #1
 8003680:	3a30      	subs	r2, #48	; 0x30
 8003682:	2a09      	cmp	r2, #9
 8003684:	d903      	bls.n	800368e <_vfiprintf_r+0x1ee>
 8003686:	2b00      	cmp	r3, #0
 8003688:	d0c5      	beq.n	8003616 <_vfiprintf_r+0x176>
 800368a:	9105      	str	r1, [sp, #20]
 800368c:	e7c3      	b.n	8003616 <_vfiprintf_r+0x176>
 800368e:	4604      	mov	r4, r0
 8003690:	2301      	movs	r3, #1
 8003692:	fb0c 2101 	mla	r1, ip, r1, r2
 8003696:	e7f0      	b.n	800367a <_vfiprintf_r+0x1da>
 8003698:	ab03      	add	r3, sp, #12
 800369a:	9300      	str	r3, [sp, #0]
 800369c:	462a      	mov	r2, r5
 800369e:	4630      	mov	r0, r6
 80036a0:	4b16      	ldr	r3, [pc, #88]	; (80036fc <_vfiprintf_r+0x25c>)
 80036a2:	a904      	add	r1, sp, #16
 80036a4:	f3af 8000 	nop.w
 80036a8:	4607      	mov	r7, r0
 80036aa:	1c78      	adds	r0, r7, #1
 80036ac:	d1d6      	bne.n	800365c <_vfiprintf_r+0x1bc>
 80036ae:	6e6b      	ldr	r3, [r5, #100]	; 0x64
 80036b0:	07d9      	lsls	r1, r3, #31
 80036b2:	d405      	bmi.n	80036c0 <_vfiprintf_r+0x220>
 80036b4:	89ab      	ldrh	r3, [r5, #12]
 80036b6:	059a      	lsls	r2, r3, #22
 80036b8:	d402      	bmi.n	80036c0 <_vfiprintf_r+0x220>
 80036ba:	6da8      	ldr	r0, [r5, #88]	; 0x58
 80036bc:	f000 ff09 	bl	80044d2 <__retarget_lock_release_recursive>
 80036c0:	89ab      	ldrh	r3, [r5, #12]
 80036c2:	065b      	lsls	r3, r3, #25
 80036c4:	f53f af12 	bmi.w	80034ec <_vfiprintf_r+0x4c>
 80036c8:	9809      	ldr	r0, [sp, #36]	; 0x24
 80036ca:	e711      	b.n	80034f0 <_vfiprintf_r+0x50>
 80036cc:	ab03      	add	r3, sp, #12
 80036ce:	9300      	str	r3, [sp, #0]
 80036d0:	462a      	mov	r2, r5
 80036d2:	4630      	mov	r0, r6
 80036d4:	4b09      	ldr	r3, [pc, #36]	; (80036fc <_vfiprintf_r+0x25c>)
 80036d6:	a904      	add	r1, sp, #16
 80036d8:	f000 f882 	bl	80037e0 <_printf_i>
 80036dc:	e7e4      	b.n	80036a8 <_vfiprintf_r+0x208>
 80036de:	bf00      	nop
 80036e0:	08004c28 	.word	0x08004c28
 80036e4:	08004c48 	.word	0x08004c48
 80036e8:	08004c08 	.word	0x08004c08
 80036ec:	08004abc 	.word	0x08004abc
 80036f0:	08004ac2 	.word	0x08004ac2
 80036f4:	08004ac6 	.word	0x08004ac6
 80036f8:	00000000 	.word	0x00000000
 80036fc:	0800347b 	.word	0x0800347b

08003700 <_printf_common>:
 8003700:	e92d 47f0 	stmdb	sp!, {r4, r5, r6, r7, r8, r9, sl, lr}
 8003704:	4616      	mov	r6, r2
 8003706:	4699      	mov	r9, r3
 8003708:	688a      	ldr	r2, [r1, #8]
 800370a:	690b      	ldr	r3, [r1, #16]
 800370c:	4607      	mov	r7, r0
 800370e:	4293      	cmp	r3, r2
 8003710:	bfb8      	it	lt
 8003712:	4613      	movlt	r3, r2
 8003714:	6033      	str	r3, [r6, #0]
 8003716:	f891 2043 	ldrb.w	r2, [r1, #67]	; 0x43
 800371a:	460c      	mov	r4, r1
 800371c:	f8dd 8020 	ldr.w	r8, [sp, #32]
 8003720:	b10a      	cbz	r2, 8003726 <_printf_common+0x26>
 8003722:	3301      	adds	r3, #1
 8003724:	6033      	str	r3, [r6, #0]
 8003726:	6823      	ldr	r3, [r4, #0]
 8003728:	0699      	lsls	r1, r3, #26
 800372a:	bf42      	ittt	mi
 800372c:	6833      	ldrmi	r3, [r6, #0]
 800372e:	3302      	addmi	r3, #2
 8003730:	6033      	strmi	r3, [r6, #0]
 8003732:	6825      	ldr	r5, [r4, #0]
 8003734:	f015 0506 	ands.w	r5, r5, #6
 8003738:	d106      	bne.n	8003748 <_printf_common+0x48>
 800373a:	f104 0a19 	add.w	sl, r4, #25
 800373e:	68e3      	ldr	r3, [r4, #12]
 8003740:	6832      	ldr	r2, [r6, #0]
 8003742:	1a9b      	subs	r3, r3, r2
 8003744:	42ab      	cmp	r3, r5
 8003746:	dc28      	bgt.n	800379a <_printf_common+0x9a>
 8003748:	f894 2043 	ldrb.w	r2, [r4, #67]	; 0x43
 800374c:	1e13      	subs	r3, r2, #0
 800374e:	6822      	ldr	r2, [r4, #0]
 8003750:	bf18      	it	ne
 8003752:	2301      	movne	r3, #1
 8003754:	0692      	lsls	r2, r2, #26
 8003756:	d42d      	bmi.n	80037b4 <_printf_common+0xb4>
 8003758:	4649      	mov	r1, r9
 800375a:	4638      	mov	r0, r7
 800375c:	f104 0243 	add.w	r2, r4, #67	; 0x43
 8003760:	47c0      	blx	r8
 8003762:	3001      	adds	r0, #1
 8003764:	d020      	beq.n	80037a8 <_printf_common+0xa8>
 8003766:	6823      	ldr	r3, [r4, #0]
 8003768:	68e5      	ldr	r5, [r4, #12]
 800376a:	f003 0306 	and.w	r3, r3, #6
 800376e:	2b04      	cmp	r3, #4
 8003770:	bf18      	it	ne
 8003772:	2500      	movne	r5, #0
 8003774:	6832      	ldr	r2, [r6, #0]
 8003776:	f04f 0600 	mov.w	r6, #0
 800377a:	68a3      	ldr	r3, [r4, #8]
 800377c:	bf08      	it	eq
 800377e:	1aad      	subeq	r5, r5, r2
 8003780:	6922      	ldr	r2, [r4, #16]
 8003782:	bf08      	it	eq
 8003784:	ea25 75e5 	biceq.w	r5, r5, r5, asr #31
 8003788:	4293      	cmp	r3, r2
 800378a:	bfc4      	itt	gt
 800378c:	1a9b      	subgt	r3, r3, r2
 800378e:	18ed      	addgt	r5, r5, r3
 8003790:	341a      	adds	r4, #26
 8003792:	42b5      	cmp	r5, r6
 8003794:	d11a      	bne.n	80037cc <_printf_common+0xcc>
 8003796:	2000      	movs	r0, #0
 8003798:	e008      	b.n	80037ac <_printf_common+0xac>
 800379a:	2301      	movs	r3, #1
 800379c:	4652      	mov	r2, sl
 800379e:	4649      	mov	r1, r9
 80037a0:	4638      	mov	r0, r7
 80037a2:	47c0      	blx	r8
 80037a4:	3001      	adds	r0, #1
 80037a6:	d103      	bne.n	80037b0 <_printf_common+0xb0>
 80037a8:	f04f 30ff 	mov.w	r0, #4294967295
 80037ac:	e8bd 87f0 	ldmia.w	sp!, {r4, r5, r6, r7, r8, r9, sl, pc}
 80037b0:	3501      	adds	r5, #1
 80037b2:	e7c4      	b.n	800373e <_printf_common+0x3e>
 80037b4:	2030      	movs	r0, #48	; 0x30
 80037b6:	18e1      	adds	r1, r4, r3
 80037b8:	f881 0043 	strb.w	r0, [r1, #67]	; 0x43
 80037bc:	1c5a      	adds	r2, r3, #1
 80037be:	f894 1045 	ldrb.w	r1, [r4, #69]	; 0x45
 80037c2:	4422      	add	r2, r4
 80037c4:	3302      	adds	r3, #2
 80037c6:	f882 1043 	strb.w	r1, [r2, #67]	; 0x43
 80037ca:	e7c5      	b.n	8003758 <_printf_common+0x58>
 80037cc:	2301      	movs	r3, #1
 80037ce:	4622      	mov	r2, r4
 80037d0:	4649      	mov	r1, r9
 80037d2:	4638      	mov	r0, r7
 80037d4:	47c0      	blx	r8
 80037d6:	3001      	adds	r0, #1
 80037d8:	d0e6      	beq.n	80037a8 <_printf_common+0xa8>
 80037da:	3601      	adds	r6, #1
 80037dc:	e7d9      	b.n	8003792 <_printf_common+0x92>
	...

080037e0 <_printf_i>:
 80037e0:	e92d 47ff 	stmdb	sp!, {r0, r1, r2, r3, r4, r5, r6, r7, r8, r9, sl, lr}
 80037e4:	7e0f      	ldrb	r7, [r1, #24]
 80037e6:	4691      	mov	r9, r2
 80037e8:	2f78      	cmp	r7, #120	; 0x78
 80037ea:	4680      	mov	r8, r0
 80037ec:	460c      	mov	r4, r1
 80037ee:	469a      	mov	sl, r3
 80037f0:	9d0c      	ldr	r5, [sp, #48]	; 0x30
 80037f2:	f101 0243 	add.w	r2, r1, #67	; 0x43
 80037f6:	d807      	bhi.n	8003808 <_printf_i+0x28>
 80037f8:	2f62      	cmp	r7, #98	; 0x62
 80037fa:	d80a      	bhi.n	8003812 <_printf_i+0x32>
 80037fc:	2f00      	cmp	r7, #0
 80037fe:	f000 80d9 	beq.w	80039b4 <_printf_i+0x1d4>
 8003802:	2f58      	cmp	r7, #88	; 0x58
 8003804:	f000 80a4 	beq.w	8003950 <_printf_i+0x170>
 8003808:	f104 0542 	add.w	r5, r4, #66	; 0x42
 800380c:	f884 7042 	strb.w	r7, [r4, #66]	; 0x42
 8003810:	e03a      	b.n	8003888 <_printf_i+0xa8>
 8003812:	f1a7 0363 	sub.w	r3, r7, #99	; 0x63
 8003816:	2b15      	cmp	r3, #21
 8003818:	d8f6      	bhi.n	8003808 <_printf_i+0x28>
 800381a:	a101      	add	r1, pc, #4	; (adr r1, 8003820 <_printf_i+0x40>)
 800381c:	f851 f023 	ldr.w	pc, [r1, r3, lsl #2]
 8003820:	08003879 	.word	0x08003879
 8003824:	0800388d 	.word	0x0800388d
 8003828:	08003809 	.word	0x08003809
 800382c:	08003809 	.word	0x08003809
 8003830:	08003809 	.word	0x08003809
 8003834:	08003809 	.word	0x08003809
 8003838:	0800388d 	.word	0x0800388d
 800383c:	08003809 	.word	0x08003809
 8003840:	08003809 	.word	0x08003809
 8003844:	08003809 	.word	0x08003809
 8003848:	08003809 	.word	0x08003809
 800384c:	0800399b 	.word	0x0800399b
 8003850:	080038bd 	.word	0x080038bd
 8003854:	0800397d 	.word	0x0800397d
 8003858:	08003809 	.word	0x08003809
 800385c:	08003809 	.word	0x08003809
 8003860:	080039bd 	.word	0x080039bd
 8003864:	08003809 	.word	0x08003809
 8003868:	080038bd 	.word	0x080038bd
 800386c:	08003809 	.word	0x08003809
 8003870:	08003809 	.word	0x08003809
 8003874:	08003985 	.word	0x08003985
 8003878:	682b      	ldr	r3, [r5, #0]
 800387a:	1d1a      	adds	r2, r3, #4
 800387c:	681b      	ldr	r3, [r3, #0]
 800387e:	602a      	str	r2, [r5, #0]
 8003880:	f104 0542 	add.w	r5, r4, #66	; 0x42
 8003884:	f884 3042 	strb.w	r3, [r4, #66]	; 0x42
 8003888:	2301      	movs	r3, #1
 800388a:	e0a4      	b.n	80039d6 <_printf_i+0x1f6>
 800388c:	6820      	ldr	r0, [r4, #0]
 800388e:	6829      	ldr	r1, [r5, #0]
 8003890:	0606      	lsls	r6, r0, #24
 8003892:	f101 0304 	add.w	r3, r1, #4
 8003896:	d50a      	bpl.n	80038ae <_printf_i+0xce>
 8003898:	680e      	ldr	r6, [r1, #0]
 800389a:	602b      	str	r3, [r5, #0]
 800389c:	2e00      	cmp	r6, #0
 800389e:	da03      	bge.n	80038a8 <_printf_i+0xc8>
 80038a0:	232d      	movs	r3, #45	; 0x2d
 80038a2:	4276      	negs	r6, r6
 80038a4:	f884 3043 	strb.w	r3, [r4, #67]	; 0x43
 80038a8:	230a      	movs	r3, #10
 80038aa:	485e      	ldr	r0, [pc, #376]	; (8003a24 <_printf_i+0x244>)
 80038ac:	e019      	b.n	80038e2 <_printf_i+0x102>
 80038ae:	680e      	ldr	r6, [r1, #0]
 80038b0:	f010 0f40 	tst.w	r0, #64	; 0x40
 80038b4:	602b      	str	r3, [r5, #0]
 80038b6:	bf18      	it	ne
 80038b8:	b236      	sxthne	r6, r6
 80038ba:	e7ef      	b.n	800389c <_printf_i+0xbc>
 80038bc:	682b      	ldr	r3, [r5, #0]
 80038be:	6820      	ldr	r0, [r4, #0]
 80038c0:	1d19      	adds	r1, r3, #4
 80038c2:	6029      	str	r1, [r5, #0]
 80038c4:	0601      	lsls	r1, r0, #24
 80038c6:	d501      	bpl.n	80038cc <_printf_i+0xec>
 80038c8:	681e      	ldr	r6, [r3, #0]
 80038ca:	e002      	b.n	80038d2 <_printf_i+0xf2>
 80038cc:	0646      	lsls	r6, r0, #25
 80038ce:	d5fb      	bpl.n	80038c8 <_printf_i+0xe8>
 80038d0:	881e      	ldrh	r6, [r3, #0]
 80038d2:	2f6f      	cmp	r7, #111	; 0x6f
 80038d4:	bf0c      	ite	eq
 80038d6:	2308      	moveq	r3, #8
 80038d8:	230a      	movne	r3, #10
 80038da:	4852      	ldr	r0, [pc, #328]	; (8003a24 <_printf_i+0x244>)
 80038dc:	2100      	movs	r1, #0
 80038de:	f884 1043 	strb.w	r1, [r4, #67]	; 0x43
 80038e2:	6865      	ldr	r5, [r4, #4]
 80038e4:	2d00      	cmp	r5, #0
 80038e6:	bfa8      	it	ge
 80038e8:	6821      	ldrge	r1, [r4, #0]
 80038ea:	60a5      	str	r5, [r4, #8]
 80038ec:	bfa4      	itt	ge
 80038ee:	f021 0104 	bicge.w	r1, r1, #4
 80038f2:	6021      	strge	r1, [r4, #0]
 80038f4:	b90e      	cbnz	r6, 80038fa <_printf_i+0x11a>
 80038f6:	2d00      	cmp	r5, #0
 80038f8:	d04d      	beq.n	8003996 <_printf_i+0x1b6>
 80038fa:	4615      	mov	r5, r2
 80038fc:	fbb6 f1f3 	udiv	r1, r6, r3
 8003900:	fb03 6711 	mls	r7, r3, r1, r6
 8003904:	5dc7      	ldrb	r7, [r0, r7]
 8003906:	f805 7d01 	strb.w	r7, [r5, #-1]!
 800390a:	4637      	mov	r7, r6
 800390c:	42bb      	cmp	r3, r7
 800390e:	460e      	mov	r6, r1
 8003910:	d9f4      	bls.n	80038fc <_printf_i+0x11c>
 8003912:	2b08      	cmp	r3, #8
 8003914:	d10b      	bne.n	800392e <_printf_i+0x14e>
 8003916:	6823      	ldr	r3, [r4, #0]
 8003918:	07de      	lsls	r6, r3, #31
 800391a:	d508      	bpl.n	800392e <_printf_i+0x14e>
 800391c:	6923      	ldr	r3, [r4, #16]
 800391e:	6861      	ldr	r1, [r4, #4]
 8003920:	4299      	cmp	r1, r3
 8003922:	bfde      	ittt	le
 8003924:	2330      	movle	r3, #48	; 0x30
 8003926:	f805 3c01 	strble.w	r3, [r5, #-1]
 800392a:	f105 35ff 	addle.w	r5, r5, #4294967295
 800392e:	1b52      	subs	r2, r2, r5
 8003930:	6122      	str	r2, [r4, #16]
 8003932:	464b      	mov	r3, r9
 8003934:	4621      	mov	r1, r4
 8003936:	4640      	mov	r0, r8
 8003938:	f8cd a000 	str.w	sl, [sp]
 800393c:	aa03      	add	r2, sp, #12
 800393e:	f7ff fedf 	bl	8003700 <_printf_common>
 8003942:	3001      	adds	r0, #1
 8003944:	d14c      	bne.n	80039e0 <_printf_i+0x200>
 8003946:	f04f 30ff 	mov.w	r0, #4294967295
 800394a:	b004      	add	sp, #16
 800394c:	e8bd 87f0 	ldmia.w	sp!, {r4, r5, r6, r7, r8, r9, sl, pc}
 8003950:	4834      	ldr	r0, [pc, #208]	; (8003a24 <_printf_i+0x244>)
 8003952:	f881 7045 	strb.w	r7, [r1, #69]	; 0x45
 8003956:	6829      	ldr	r1, [r5, #0]
 8003958:	6823      	ldr	r3, [r4, #0]
 800395a:	f851 6b04 	ldr.w	r6, [r1], #4
 800395e:	6029      	str	r1, [r5, #0]
 8003960:	061d      	lsls	r5, r3, #24
 8003962:	d514      	bpl.n	800398e <_printf_i+0x1ae>
 8003964:	07df      	lsls	r7, r3, #31
 8003966:	bf44      	itt	mi
 8003968:	f043 0320 	orrmi.w	r3, r3, #32
 800396c:	6023      	strmi	r3, [r4, #0]
 800396e:	b91e      	cbnz	r6, 8003978 <_printf_i+0x198>
 8003970:	6823      	ldr	r3, [r4, #0]
 8003972:	f023 0320 	bic.w	r3, r3, #32
 8003976:	6023      	str	r3, [r4, #0]
 8003978:	2310      	movs	r3, #16
 800397a:	e7af      	b.n	80038dc <_printf_i+0xfc>
 800397c:	6823      	ldr	r3, [r4, #0]
 800397e:	f043 0320 	orr.w	r3, r3, #32
 8003982:	6023      	str	r3, [r4, #0]
 8003984:	2378      	movs	r3, #120	; 0x78
 8003986:	4828      	ldr	r0, [pc, #160]	; (8003a28 <_printf_i+0x248>)
 8003988:	f884 3045 	strb.w	r3, [r4, #69]	; 0x45
 800398c:	e7e3      	b.n	8003956 <_printf_i+0x176>
 800398e:	0659      	lsls	r1, r3, #25
 8003990:	bf48      	it	mi
 8003992:	b2b6      	uxthmi	r6, r6
 8003994:	e7e6      	b.n	8003964 <_printf_i+0x184>
 8003996:	4615      	mov	r5, r2
 8003998:	e7bb      	b.n	8003912 <_printf_i+0x132>
 800399a:	682b      	ldr	r3, [r5, #0]
 800399c:	6826      	ldr	r6, [r4, #0]
 800399e:	1d18      	adds	r0, r3, #4
 80039a0:	6961      	ldr	r1, [r4, #20]
 80039a2:	6028      	str	r0, [r5, #0]
 80039a4:	0635      	lsls	r5, r6, #24
 80039a6:	681b      	ldr	r3, [r3, #0]
 80039a8:	d501      	bpl.n	80039ae <_printf_i+0x1ce>
 80039aa:	6019      	str	r1, [r3, #0]
 80039ac:	e002      	b.n	80039b4 <_printf_i+0x1d4>
 80039ae:	0670      	lsls	r0, r6, #25
 80039b0:	d5fb      	bpl.n	80039aa <_printf_i+0x1ca>
 80039b2:	8019      	strh	r1, [r3, #0]
 80039b4:	2300      	movs	r3, #0
 80039b6:	4615      	mov	r5, r2
 80039b8:	6123      	str	r3, [r4, #16]
 80039ba:	e7ba      	b.n	8003932 <_printf_i+0x152>
 80039bc:	682b      	ldr	r3, [r5, #0]
 80039be:	2100      	movs	r1, #0
 80039c0:	1d1a      	adds	r2, r3, #4
 80039c2:	602a      	str	r2, [r5, #0]
 80039c4:	681d      	ldr	r5, [r3, #0]
 80039c6:	6862      	ldr	r2, [r4, #4]
 80039c8:	4628      	mov	r0, r5
 80039ca:	f000 fde9 	bl	80045a0 <memchr>
 80039ce:	b108      	cbz	r0, 80039d4 <_printf_i+0x1f4>
 80039d0:	1b40      	subs	r0, r0, r5
 80039d2:	6060      	str	r0, [r4, #4]
 80039d4:	6863      	ldr	r3, [r4, #4]
 80039d6:	6123      	str	r3, [r4, #16]
 80039d8:	2300      	movs	r3, #0
 80039da:	f884 3043 	strb.w	r3, [r4, #67]	; 0x43
 80039de:	e7a8      	b.n	8003932 <_printf_i+0x152>
 80039e0:	462a      	mov	r2, r5
 80039e2:	4649      	mov	r1, r9
 80039e4:	4640      	mov	r0, r8
 80039e6:	6923      	ldr	r3, [r4, #16]
 80039e8:	47d0      	blx	sl
 80039ea:	3001      	adds	r0, #1
 80039ec:	d0ab      	beq.n	8003946 <_printf_i+0x166>
 80039ee:	6823      	ldr	r3, [r4, #0]
 80039f0:	079b      	lsls	r3, r3, #30
 80039f2:	d413      	bmi.n	8003a1c <_printf_i+0x23c>
 80039f4:	68e0      	ldr	r0, [r4, #12]
 80039f6:	9b03      	ldr	r3, [sp, #12]
 80039f8:	4298      	cmp	r0, r3
 80039fa:	bfb8      	it	lt
 80039fc:	4618      	movlt	r0, r3
 80039fe:	e7a4      	b.n	800394a <_printf_i+0x16a>
 8003a00:	2301      	movs	r3, #1
 8003a02:	4632      	mov	r2, r6
 8003a04:	4649      	mov	r1, r9
 8003a06:	4640      	mov	r0, r8
 8003a08:	47d0      	blx	sl
 8003a0a:	3001      	adds	r0, #1
 8003a0c:	d09b      	beq.n	8003946 <_printf_i+0x166>
 8003a0e:	3501      	adds	r5, #1
 8003a10:	68e3      	ldr	r3, [r4, #12]
 8003a12:	9903      	ldr	r1, [sp, #12]
 8003a14:	1a5b      	subs	r3, r3, r1
 8003a16:	42ab      	cmp	r3, r5
 8003a18:	dcf2      	bgt.n	8003a00 <_printf_i+0x220>
 8003a1a:	e7eb      	b.n	80039f4 <_printf_i+0x214>
 8003a1c:	2500      	movs	r5, #0
 8003a1e:	f104 0619 	add.w	r6, r4, #25
 8003a22:	e7f5      	b.n	8003a10 <_printf_i+0x230>
 8003a24:	08004acd 	.word	0x08004acd
 8003a28:	08004ade 	.word	0x08004ade

08003a2c <_scanf_chars>:
 8003a2c:	e92d 43f8 	stmdb	sp!, {r3, r4, r5, r6, r7, r8, r9, lr}
 8003a30:	4615      	mov	r5, r2
 8003a32:	688a      	ldr	r2, [r1, #8]
 8003a34:	4680      	mov	r8, r0
 8003a36:	460c      	mov	r4, r1
 8003a38:	b932      	cbnz	r2, 8003a48 <_scanf_chars+0x1c>
 8003a3a:	698a      	ldr	r2, [r1, #24]
 8003a3c:	2a00      	cmp	r2, #0
 8003a3e:	bf0c      	ite	eq
 8003a40:	2201      	moveq	r2, #1
 8003a42:	f04f 32ff 	movne.w	r2, #4294967295
 8003a46:	608a      	str	r2, [r1, #8]
 8003a48:	2700      	movs	r7, #0
 8003a4a:	6822      	ldr	r2, [r4, #0]
 8003a4c:	f8df 908c 	ldr.w	r9, [pc, #140]	; 8003adc <_scanf_chars+0xb0>
 8003a50:	06d1      	lsls	r1, r2, #27
 8003a52:	bf5f      	itttt	pl
 8003a54:	681a      	ldrpl	r2, [r3, #0]
 8003a56:	1d11      	addpl	r1, r2, #4
 8003a58:	6019      	strpl	r1, [r3, #0]
 8003a5a:	6816      	ldrpl	r6, [r2, #0]
 8003a5c:	69a0      	ldr	r0, [r4, #24]
 8003a5e:	b188      	cbz	r0, 8003a84 <_scanf_chars+0x58>
 8003a60:	2801      	cmp	r0, #1
 8003a62:	d107      	bne.n	8003a74 <_scanf_chars+0x48>
 8003a64:	682b      	ldr	r3, [r5, #0]
 8003a66:	781a      	ldrb	r2, [r3, #0]
 8003a68:	6963      	ldr	r3, [r4, #20]
 8003a6a:	5c9b      	ldrb	r3, [r3, r2]
 8003a6c:	b953      	cbnz	r3, 8003a84 <_scanf_chars+0x58>
 8003a6e:	2f00      	cmp	r7, #0
 8003a70:	d031      	beq.n	8003ad6 <_scanf_chars+0xaa>
 8003a72:	e022      	b.n	8003aba <_scanf_chars+0x8e>
 8003a74:	2802      	cmp	r0, #2
 8003a76:	d120      	bne.n	8003aba <_scanf_chars+0x8e>
 8003a78:	682b      	ldr	r3, [r5, #0]
 8003a7a:	781b      	ldrb	r3, [r3, #0]
 8003a7c:	f813 3009 	ldrb.w	r3, [r3, r9]
 8003a80:	071b      	lsls	r3, r3, #28
 8003a82:	d41a      	bmi.n	8003aba <_scanf_chars+0x8e>
 8003a84:	6823      	ldr	r3, [r4, #0]
 8003a86:	3701      	adds	r7, #1
 8003a88:	06da      	lsls	r2, r3, #27
 8003a8a:	bf5e      	ittt	pl
 8003a8c:	682b      	ldrpl	r3, [r5, #0]
 8003a8e:	781b      	ldrbpl	r3, [r3, #0]
 8003a90:	f806 3b01 	strbpl.w	r3, [r6], #1
 8003a94:	682a      	ldr	r2, [r5, #0]
 8003a96:	686b      	ldr	r3, [r5, #4]
 8003a98:	3201      	adds	r2, #1
 8003a9a:	602a      	str	r2, [r5, #0]
 8003a9c:	68a2      	ldr	r2, [r4, #8]
 8003a9e:	3b01      	subs	r3, #1
 8003aa0:	3a01      	subs	r2, #1
 8003aa2:	606b      	str	r3, [r5, #4]
 8003aa4:	60a2      	str	r2, [r4, #8]
 8003aa6:	b142      	cbz	r2, 8003aba <_scanf_chars+0x8e>
 8003aa8:	2b00      	cmp	r3, #0
 8003aaa:	dcd7      	bgt.n	8003a5c <_scanf_chars+0x30>
 8003aac:	4629      	mov	r1, r5
 8003aae:	4640      	mov	r0, r8
 8003ab0:	f8d4 3180 	ldr.w	r3, [r4, #384]	; 0x180
 8003ab4:	4798      	blx	r3
 8003ab6:	2800      	cmp	r0, #0
 8003ab8:	d0d0      	beq.n	8003a5c <_scanf_chars+0x30>
 8003aba:	6823      	ldr	r3, [r4, #0]
 8003abc:	f013 0310 	ands.w	r3, r3, #16
 8003ac0:	d105      	bne.n	8003ace <_scanf_chars+0xa2>
 8003ac2:	68e2      	ldr	r2, [r4, #12]
 8003ac4:	3201      	adds	r2, #1
 8003ac6:	60e2      	str	r2, [r4, #12]
 8003ac8:	69a2      	ldr	r2, [r4, #24]
 8003aca:	b102      	cbz	r2, 8003ace <_scanf_chars+0xa2>
 8003acc:	7033      	strb	r3, [r6, #0]
 8003ace:	2000      	movs	r0, #0
 8003ad0:	6923      	ldr	r3, [r4, #16]
 8003ad2:	443b      	add	r3, r7
 8003ad4:	6123      	str	r3, [r4, #16]
 8003ad6:	e8bd 83f8 	ldmia.w	sp!, {r3, r4, r5, r6, r7, r8, r9, pc}
 8003ada:	bf00      	nop
 8003adc:	08004b08 	.word	0x08004b08

08003ae0 <_scanf_i>:
 8003ae0:	e92d 4ff0 	stmdb	sp!, {r4, r5, r6, r7, r8, r9, sl, fp, lr}
 8003ae4:	460c      	mov	r4, r1
 8003ae6:	4698      	mov	r8, r3
 8003ae8:	4b75      	ldr	r3, [pc, #468]	; (8003cc0 <_scanf_i+0x1e0>)
 8003aea:	b087      	sub	sp, #28
 8003aec:	4682      	mov	sl, r0
 8003aee:	4616      	mov	r6, r2
 8003af0:	e893 0007 	ldmia.w	r3, {r0, r1, r2}
 8003af4:	ab03      	add	r3, sp, #12
 8003af6:	e883 0007 	stmia.w	r3, {r0, r1, r2}
 8003afa:	4b72      	ldr	r3, [pc, #456]	; (8003cc4 <_scanf_i+0x1e4>)
 8003afc:	69a1      	ldr	r1, [r4, #24]
 8003afe:	4a72      	ldr	r2, [pc, #456]	; (8003cc8 <_scanf_i+0x1e8>)
 8003b00:	4627      	mov	r7, r4
 8003b02:	2903      	cmp	r1, #3
 8003b04:	bf18      	it	ne
 8003b06:	461a      	movne	r2, r3
 8003b08:	68a3      	ldr	r3, [r4, #8]
 8003b0a:	9201      	str	r2, [sp, #4]
 8003b0c:	1e5a      	subs	r2, r3, #1
 8003b0e:	f5b2 7fae 	cmp.w	r2, #348	; 0x15c
 8003b12:	bf81      	itttt	hi
 8003b14:	f46f 75ae 	mvnhi.w	r5, #348	; 0x15c
 8003b18:	eb03 0905 	addhi.w	r9, r3, r5
 8003b1c:	f240 135d 	movwhi	r3, #349	; 0x15d
 8003b20:	60a3      	strhi	r3, [r4, #8]
 8003b22:	f857 3b1c 	ldr.w	r3, [r7], #28
 8003b26:	bf98      	it	ls
 8003b28:	f04f 0900 	movls.w	r9, #0
 8003b2c:	463d      	mov	r5, r7
 8003b2e:	f04f 0b00 	mov.w	fp, #0
 8003b32:	f443 6350 	orr.w	r3, r3, #3328	; 0xd00
 8003b36:	6023      	str	r3, [r4, #0]
 8003b38:	6831      	ldr	r1, [r6, #0]
 8003b3a:	ab03      	add	r3, sp, #12
 8003b3c:	2202      	movs	r2, #2
 8003b3e:	7809      	ldrb	r1, [r1, #0]
 8003b40:	f853 002b 	ldr.w	r0, [r3, fp, lsl #2]
 8003b44:	f000 fd2c 	bl	80045a0 <memchr>
 8003b48:	b328      	cbz	r0, 8003b96 <_scanf_i+0xb6>
 8003b4a:	f1bb 0f01 	cmp.w	fp, #1
 8003b4e:	d159      	bne.n	8003c04 <_scanf_i+0x124>
 8003b50:	6862      	ldr	r2, [r4, #4]
 8003b52:	b92a      	cbnz	r2, 8003b60 <_scanf_i+0x80>
 8003b54:	2308      	movs	r3, #8
 8003b56:	6822      	ldr	r2, [r4, #0]
 8003b58:	6063      	str	r3, [r4, #4]
 8003b5a:	f442 7200 	orr.w	r2, r2, #512	; 0x200
 8003b5e:	6022      	str	r2, [r4, #0]
 8003b60:	6822      	ldr	r2, [r4, #0]
 8003b62:	f422 62a0 	bic.w	r2, r2, #1280	; 0x500
 8003b66:	6022      	str	r2, [r4, #0]
 8003b68:	68a2      	ldr	r2, [r4, #8]
 8003b6a:	1e51      	subs	r1, r2, #1
 8003b6c:	60a1      	str	r1, [r4, #8]
 8003b6e:	b192      	cbz	r2, 8003b96 <_scanf_i+0xb6>
 8003b70:	6832      	ldr	r2, [r6, #0]
 8003b72:	1c51      	adds	r1, r2, #1
 8003b74:	6031      	str	r1, [r6, #0]
 8003b76:	7812      	ldrb	r2, [r2, #0]
 8003b78:	f805 2b01 	strb.w	r2, [r5], #1
 8003b7c:	6872      	ldr	r2, [r6, #4]
 8003b7e:	3a01      	subs	r2, #1
 8003b80:	2a00      	cmp	r2, #0
 8003b82:	6072      	str	r2, [r6, #4]
 8003b84:	dc07      	bgt.n	8003b96 <_scanf_i+0xb6>
 8003b86:	4631      	mov	r1, r6
 8003b88:	4650      	mov	r0, sl
 8003b8a:	f8d4 2180 	ldr.w	r2, [r4, #384]	; 0x180
 8003b8e:	4790      	blx	r2
 8003b90:	2800      	cmp	r0, #0
 8003b92:	f040 8085 	bne.w	8003ca0 <_scanf_i+0x1c0>
 8003b96:	f10b 0b01 	add.w	fp, fp, #1
 8003b9a:	f1bb 0f03 	cmp.w	fp, #3
 8003b9e:	d1cb      	bne.n	8003b38 <_scanf_i+0x58>
 8003ba0:	6863      	ldr	r3, [r4, #4]
 8003ba2:	b90b      	cbnz	r3, 8003ba8 <_scanf_i+0xc8>
 8003ba4:	230a      	movs	r3, #10
 8003ba6:	6063      	str	r3, [r4, #4]
 8003ba8:	6863      	ldr	r3, [r4, #4]
 8003baa:	4948      	ldr	r1, [pc, #288]	; (8003ccc <_scanf_i+0x1ec>)
 8003bac:	6960      	ldr	r0, [r4, #20]
 8003bae:	1ac9      	subs	r1, r1, r3
 8003bb0:	f000 f8b0 	bl	8003d14 <__sccl>
 8003bb4:	f04f 0b00 	mov.w	fp, #0
 8003bb8:	68a3      	ldr	r3, [r4, #8]
 8003bba:	6822      	ldr	r2, [r4, #0]
 8003bbc:	2b00      	cmp	r3, #0
 8003bbe:	d03d      	beq.n	8003c3c <_scanf_i+0x15c>
 8003bc0:	6831      	ldr	r1, [r6, #0]
 8003bc2:	6960      	ldr	r0, [r4, #20]
 8003bc4:	f891 c000 	ldrb.w	ip, [r1]
 8003bc8:	f810 000c 	ldrb.w	r0, [r0, ip]
 8003bcc:	2800      	cmp	r0, #0
 8003bce:	d035      	beq.n	8003c3c <_scanf_i+0x15c>
 8003bd0:	f1bc 0f30 	cmp.w	ip, #48	; 0x30
 8003bd4:	d124      	bne.n	8003c20 <_scanf_i+0x140>
 8003bd6:	0510      	lsls	r0, r2, #20
 8003bd8:	d522      	bpl.n	8003c20 <_scanf_i+0x140>
 8003bda:	f10b 0b01 	add.w	fp, fp, #1
 8003bde:	f1b9 0f00 	cmp.w	r9, #0
 8003be2:	d003      	beq.n	8003bec <_scanf_i+0x10c>
 8003be4:	3301      	adds	r3, #1
 8003be6:	f109 39ff 	add.w	r9, r9, #4294967295
 8003bea:	60a3      	str	r3, [r4, #8]
 8003bec:	6873      	ldr	r3, [r6, #4]
 8003bee:	3b01      	subs	r3, #1
 8003bf0:	2b00      	cmp	r3, #0
 8003bf2:	6073      	str	r3, [r6, #4]
 8003bf4:	dd1b      	ble.n	8003c2e <_scanf_i+0x14e>
 8003bf6:	6833      	ldr	r3, [r6, #0]
 8003bf8:	3301      	adds	r3, #1
 8003bfa:	6033      	str	r3, [r6, #0]
 8003bfc:	68a3      	ldr	r3, [r4, #8]
 8003bfe:	3b01      	subs	r3, #1
 8003c00:	60a3      	str	r3, [r4, #8]
 8003c02:	e7d9      	b.n	8003bb8 <_scanf_i+0xd8>
 8003c04:	f1bb 0f02 	cmp.w	fp, #2
 8003c08:	d1ae      	bne.n	8003b68 <_scanf_i+0x88>
 8003c0a:	6822      	ldr	r2, [r4, #0]
 8003c0c:	f402 61c0 	and.w	r1, r2, #1536	; 0x600
 8003c10:	f5b1 7f00 	cmp.w	r1, #512	; 0x200
 8003c14:	d1bf      	bne.n	8003b96 <_scanf_i+0xb6>
 8003c16:	2310      	movs	r3, #16
 8003c18:	f442 7280 	orr.w	r2, r2, #256	; 0x100
 8003c1c:	6063      	str	r3, [r4, #4]
 8003c1e:	e7a2      	b.n	8003b66 <_scanf_i+0x86>
 8003c20:	f422 6210 	bic.w	r2, r2, #2304	; 0x900
 8003c24:	6022      	str	r2, [r4, #0]
 8003c26:	780b      	ldrb	r3, [r1, #0]
 8003c28:	f805 3b01 	strb.w	r3, [r5], #1
 8003c2c:	e7de      	b.n	8003bec <_scanf_i+0x10c>
 8003c2e:	4631      	mov	r1, r6
 8003c30:	4650      	mov	r0, sl
 8003c32:	f8d4 3180 	ldr.w	r3, [r4, #384]	; 0x180
 8003c36:	4798      	blx	r3
 8003c38:	2800      	cmp	r0, #0
 8003c3a:	d0df      	beq.n	8003bfc <_scanf_i+0x11c>
 8003c3c:	6823      	ldr	r3, [r4, #0]
 8003c3e:	05db      	lsls	r3, r3, #23
 8003c40:	d50d      	bpl.n	8003c5e <_scanf_i+0x17e>
 8003c42:	42bd      	cmp	r5, r7
 8003c44:	d909      	bls.n	8003c5a <_scanf_i+0x17a>
 8003c46:	f815 1c01 	ldrb.w	r1, [r5, #-1]
 8003c4a:	4632      	mov	r2, r6
 8003c4c:	4650      	mov	r0, sl
 8003c4e:	f8d4 317c 	ldr.w	r3, [r4, #380]	; 0x17c
 8003c52:	f105 39ff 	add.w	r9, r5, #4294967295
 8003c56:	4798      	blx	r3
 8003c58:	464d      	mov	r5, r9
 8003c5a:	42bd      	cmp	r5, r7
 8003c5c:	d02d      	beq.n	8003cba <_scanf_i+0x1da>
 8003c5e:	6822      	ldr	r2, [r4, #0]
 8003c60:	f012 0210 	ands.w	r2, r2, #16
 8003c64:	d113      	bne.n	8003c8e <_scanf_i+0x1ae>
 8003c66:	702a      	strb	r2, [r5, #0]
 8003c68:	4639      	mov	r1, r7
 8003c6a:	6863      	ldr	r3, [r4, #4]
 8003c6c:	4650      	mov	r0, sl
 8003c6e:	9e01      	ldr	r6, [sp, #4]
 8003c70:	47b0      	blx	r6
 8003c72:	6821      	ldr	r1, [r4, #0]
 8003c74:	f8d8 3000 	ldr.w	r3, [r8]
 8003c78:	f011 0f20 	tst.w	r1, #32
 8003c7c:	d013      	beq.n	8003ca6 <_scanf_i+0x1c6>
 8003c7e:	1d1a      	adds	r2, r3, #4
 8003c80:	f8c8 2000 	str.w	r2, [r8]
 8003c84:	681b      	ldr	r3, [r3, #0]
 8003c86:	6018      	str	r0, [r3, #0]
 8003c88:	68e3      	ldr	r3, [r4, #12]
 8003c8a:	3301      	adds	r3, #1
 8003c8c:	60e3      	str	r3, [r4, #12]
 8003c8e:	2000      	movs	r0, #0
 8003c90:	1bed      	subs	r5, r5, r7
 8003c92:	44ab      	add	fp, r5
 8003c94:	6925      	ldr	r5, [r4, #16]
 8003c96:	445d      	add	r5, fp
 8003c98:	6125      	str	r5, [r4, #16]
 8003c9a:	b007      	add	sp, #28
 8003c9c:	e8bd 8ff0 	ldmia.w	sp!, {r4, r5, r6, r7, r8, r9, sl, fp, pc}
 8003ca0:	f04f 0b00 	mov.w	fp, #0
 8003ca4:	e7ca      	b.n	8003c3c <_scanf_i+0x15c>
 8003ca6:	1d1a      	adds	r2, r3, #4
 8003ca8:	f8c8 2000 	str.w	r2, [r8]
 8003cac:	681b      	ldr	r3, [r3, #0]
 8003cae:	f011 0f01 	tst.w	r1, #1
 8003cb2:	bf14      	ite	ne
 8003cb4:	8018      	strhne	r0, [r3, #0]
 8003cb6:	6018      	streq	r0, [r3, #0]
 8003cb8:	e7e6      	b.n	8003c88 <_scanf_i+0x1a8>
 8003cba:	2001      	movs	r0, #1
 8003cbc:	e7ed      	b.n	8003c9a <_scanf_i+0x1ba>
 8003cbe:	bf00      	nop
 8003cc0:	0800475c 	.word	0x0800475c
 8003cc4:	08003f65 	.word	0x08003f65
 8003cc8:	08003e7d 	.word	0x08003e7d
 8003ccc:	08004b05 	.word	0x08004b05

08003cd0 <_read_r>:
 8003cd0:	b538      	push	{r3, r4, r5, lr}
 8003cd2:	4604      	mov	r4, r0
 8003cd4:	4608      	mov	r0, r1
 8003cd6:	4611      	mov	r1, r2
 8003cd8:	2200      	movs	r2, #0
 8003cda:	4d05      	ldr	r5, [pc, #20]	; (8003cf0 <_read_r+0x20>)
 8003cdc:	602a      	str	r2, [r5, #0]
 8003cde:	461a      	mov	r2, r3
 8003ce0:	f7fc ff8c 	bl	8000bfc <_read>
 8003ce4:	1c43      	adds	r3, r0, #1
 8003ce6:	d102      	bne.n	8003cee <_read_r+0x1e>
 8003ce8:	682b      	ldr	r3, [r5, #0]
 8003cea:	b103      	cbz	r3, 8003cee <_read_r+0x1e>
 8003cec:	6023      	str	r3, [r4, #0]
 8003cee:	bd38      	pop	{r3, r4, r5, pc}
 8003cf0:	20000460 	.word	0x20000460

08003cf4 <_sbrk_r>:
 8003cf4:	b538      	push	{r3, r4, r5, lr}
 8003cf6:	2300      	movs	r3, #0
 8003cf8:	4d05      	ldr	r5, [pc, #20]	; (8003d10 <_sbrk_r+0x1c>)
 8003cfa:	4604      	mov	r4, r0
 8003cfc:	4608      	mov	r0, r1
 8003cfe:	602b      	str	r3, [r5, #0]
 8003d00:	f7fc ffa4 	bl	8000c4c <_sbrk>
 8003d04:	1c43      	adds	r3, r0, #1
 8003d06:	d102      	bne.n	8003d0e <_sbrk_r+0x1a>
 8003d08:	682b      	ldr	r3, [r5, #0]
 8003d0a:	b103      	cbz	r3, 8003d0e <_sbrk_r+0x1a>
 8003d0c:	6023      	str	r3, [r4, #0]
 8003d0e:	bd38      	pop	{r3, r4, r5, pc}
 8003d10:	20000460 	.word	0x20000460

08003d14 <__sccl>:
 8003d14:	b570      	push	{r4, r5, r6, lr}
 8003d16:	780b      	ldrb	r3, [r1, #0]
 8003d18:	4604      	mov	r4, r0
 8003d1a:	2b5e      	cmp	r3, #94	; 0x5e
 8003d1c:	bf13      	iteet	ne
 8003d1e:	2200      	movne	r2, #0
 8003d20:	2201      	moveq	r2, #1
 8003d22:	784b      	ldrbeq	r3, [r1, #1]
 8003d24:	1c48      	addne	r0, r1, #1
 8003d26:	bf08      	it	eq
 8003d28:	1c88      	addeq	r0, r1, #2
 8003d2a:	f104 05ff 	add.w	r5, r4, #255	; 0xff
 8003d2e:	1e61      	subs	r1, r4, #1
 8003d30:	f801 2f01 	strb.w	r2, [r1, #1]!
 8003d34:	42a9      	cmp	r1, r5
 8003d36:	d1fb      	bne.n	8003d30 <__sccl+0x1c>
 8003d38:	b90b      	cbnz	r3, 8003d3e <__sccl+0x2a>
 8003d3a:	3801      	subs	r0, #1
 8003d3c:	bd70      	pop	{r4, r5, r6, pc}
 8003d3e:	f082 0201 	eor.w	r2, r2, #1
 8003d42:	4605      	mov	r5, r0
 8003d44:	54e2      	strb	r2, [r4, r3]
 8003d46:	4628      	mov	r0, r5
 8003d48:	f810 1b01 	ldrb.w	r1, [r0], #1
 8003d4c:	292d      	cmp	r1, #45	; 0x2d
 8003d4e:	d006      	beq.n	8003d5e <__sccl+0x4a>
 8003d50:	295d      	cmp	r1, #93	; 0x5d
 8003d52:	d0f3      	beq.n	8003d3c <__sccl+0x28>
 8003d54:	b909      	cbnz	r1, 8003d5a <__sccl+0x46>
 8003d56:	4628      	mov	r0, r5
 8003d58:	e7f0      	b.n	8003d3c <__sccl+0x28>
 8003d5a:	460b      	mov	r3, r1
 8003d5c:	e7f1      	b.n	8003d42 <__sccl+0x2e>
 8003d5e:	786e      	ldrb	r6, [r5, #1]
 8003d60:	2e5d      	cmp	r6, #93	; 0x5d
 8003d62:	d0fa      	beq.n	8003d5a <__sccl+0x46>
 8003d64:	42b3      	cmp	r3, r6
 8003d66:	dcf8      	bgt.n	8003d5a <__sccl+0x46>
 8003d68:	4619      	mov	r1, r3
 8003d6a:	3502      	adds	r5, #2
 8003d6c:	3101      	adds	r1, #1
 8003d6e:	428e      	cmp	r6, r1
 8003d70:	5462      	strb	r2, [r4, r1]
 8003d72:	dcfb      	bgt.n	8003d6c <__sccl+0x58>
 8003d74:	1af1      	subs	r1, r6, r3
 8003d76:	3901      	subs	r1, #1
 8003d78:	42b3      	cmp	r3, r6
 8003d7a:	bfa8      	it	ge
 8003d7c:	2100      	movge	r1, #0
 8003d7e:	1c58      	adds	r0, r3, #1
 8003d80:	1843      	adds	r3, r0, r1
 8003d82:	e7e0      	b.n	8003d46 <__sccl+0x32>

08003d84 <_strtol_l.constprop.0>:
 8003d84:	2b01      	cmp	r3, #1
 8003d86:	e92d 47f0 	stmdb	sp!, {r4, r5, r6, r7, r8, r9, sl, lr}
 8003d8a:	4680      	mov	r8, r0
 8003d8c:	d001      	beq.n	8003d92 <_strtol_l.constprop.0+0xe>
 8003d8e:	2b24      	cmp	r3, #36	; 0x24
 8003d90:	d906      	bls.n	8003da0 <_strtol_l.constprop.0+0x1c>
 8003d92:	f7fe fd83 	bl	800289c <__errno>
 8003d96:	2316      	movs	r3, #22
 8003d98:	6003      	str	r3, [r0, #0]
 8003d9a:	2000      	movs	r0, #0
 8003d9c:	e8bd 87f0 	ldmia.w	sp!, {r4, r5, r6, r7, r8, r9, sl, pc}
 8003da0:	460d      	mov	r5, r1
 8003da2:	4f35      	ldr	r7, [pc, #212]	; (8003e78 <_strtol_l.constprop.0+0xf4>)
 8003da4:	4628      	mov	r0, r5
 8003da6:	f815 4b01 	ldrb.w	r4, [r5], #1
 8003daa:	5de6      	ldrb	r6, [r4, r7]
 8003dac:	f016 0608 	ands.w	r6, r6, #8
 8003db0:	d1f8      	bne.n	8003da4 <_strtol_l.constprop.0+0x20>
 8003db2:	2c2d      	cmp	r4, #45	; 0x2d
 8003db4:	d12f      	bne.n	8003e16 <_strtol_l.constprop.0+0x92>
 8003db6:	2601      	movs	r6, #1
 8003db8:	782c      	ldrb	r4, [r5, #0]
 8003dba:	1c85      	adds	r5, r0, #2
 8003dbc:	2b00      	cmp	r3, #0
 8003dbe:	d057      	beq.n	8003e70 <_strtol_l.constprop.0+0xec>
 8003dc0:	2b10      	cmp	r3, #16
 8003dc2:	d109      	bne.n	8003dd8 <_strtol_l.constprop.0+0x54>
 8003dc4:	2c30      	cmp	r4, #48	; 0x30
 8003dc6:	d107      	bne.n	8003dd8 <_strtol_l.constprop.0+0x54>
 8003dc8:	7828      	ldrb	r0, [r5, #0]
 8003dca:	f000 00df 	and.w	r0, r0, #223	; 0xdf
 8003dce:	2858      	cmp	r0, #88	; 0x58
 8003dd0:	d149      	bne.n	8003e66 <_strtol_l.constprop.0+0xe2>
 8003dd2:	2310      	movs	r3, #16
 8003dd4:	786c      	ldrb	r4, [r5, #1]
 8003dd6:	3502      	adds	r5, #2
 8003dd8:	2700      	movs	r7, #0
 8003dda:	f106 4e00 	add.w	lr, r6, #2147483648	; 0x80000000
 8003dde:	f10e 3eff 	add.w	lr, lr, #4294967295
 8003de2:	fbbe f9f3 	udiv	r9, lr, r3
 8003de6:	4638      	mov	r0, r7
 8003de8:	fb03 ea19 	mls	sl, r3, r9, lr
 8003dec:	f1a4 0c30 	sub.w	ip, r4, #48	; 0x30
 8003df0:	f1bc 0f09 	cmp.w	ip, #9
 8003df4:	d814      	bhi.n	8003e20 <_strtol_l.constprop.0+0x9c>
 8003df6:	4664      	mov	r4, ip
 8003df8:	42a3      	cmp	r3, r4
 8003dfa:	dd22      	ble.n	8003e42 <_strtol_l.constprop.0+0xbe>
 8003dfc:	2f00      	cmp	r7, #0
 8003dfe:	db1d      	blt.n	8003e3c <_strtol_l.constprop.0+0xb8>
 8003e00:	4581      	cmp	r9, r0
 8003e02:	d31b      	bcc.n	8003e3c <_strtol_l.constprop.0+0xb8>
 8003e04:	d101      	bne.n	8003e0a <_strtol_l.constprop.0+0x86>
 8003e06:	45a2      	cmp	sl, r4
 8003e08:	db18      	blt.n	8003e3c <_strtol_l.constprop.0+0xb8>
 8003e0a:	2701      	movs	r7, #1
 8003e0c:	fb00 4003 	mla	r0, r0, r3, r4
 8003e10:	f815 4b01 	ldrb.w	r4, [r5], #1
 8003e14:	e7ea      	b.n	8003dec <_strtol_l.constprop.0+0x68>
 8003e16:	2c2b      	cmp	r4, #43	; 0x2b
 8003e18:	bf04      	itt	eq
 8003e1a:	782c      	ldrbeq	r4, [r5, #0]
 8003e1c:	1c85      	addeq	r5, r0, #2
 8003e1e:	e7cd      	b.n	8003dbc <_strtol_l.constprop.0+0x38>
 8003e20:	f1a4 0c41 	sub.w	ip, r4, #65	; 0x41
 8003e24:	f1bc 0f19 	cmp.w	ip, #25
 8003e28:	d801      	bhi.n	8003e2e <_strtol_l.constprop.0+0xaa>
 8003e2a:	3c37      	subs	r4, #55	; 0x37
 8003e2c:	e7e4      	b.n	8003df8 <_strtol_l.constprop.0+0x74>
 8003e2e:	f1a4 0c61 	sub.w	ip, r4, #97	; 0x61
 8003e32:	f1bc 0f19 	cmp.w	ip, #25
 8003e36:	d804      	bhi.n	8003e42 <_strtol_l.constprop.0+0xbe>
 8003e38:	3c57      	subs	r4, #87	; 0x57
 8003e3a:	e7dd      	b.n	8003df8 <_strtol_l.constprop.0+0x74>
 8003e3c:	f04f 37ff 	mov.w	r7, #4294967295
 8003e40:	e7e6      	b.n	8003e10 <_strtol_l.constprop.0+0x8c>
 8003e42:	2f00      	cmp	r7, #0
 8003e44:	da07      	bge.n	8003e56 <_strtol_l.constprop.0+0xd2>
 8003e46:	2322      	movs	r3, #34	; 0x22
 8003e48:	4670      	mov	r0, lr
 8003e4a:	f8c8 3000 	str.w	r3, [r8]
 8003e4e:	2a00      	cmp	r2, #0
 8003e50:	d0a4      	beq.n	8003d9c <_strtol_l.constprop.0+0x18>
 8003e52:	1e69      	subs	r1, r5, #1
 8003e54:	e005      	b.n	8003e62 <_strtol_l.constprop.0+0xde>
 8003e56:	b106      	cbz	r6, 8003e5a <_strtol_l.constprop.0+0xd6>
 8003e58:	4240      	negs	r0, r0
 8003e5a:	2a00      	cmp	r2, #0
 8003e5c:	d09e      	beq.n	8003d9c <_strtol_l.constprop.0+0x18>
 8003e5e:	2f00      	cmp	r7, #0
 8003e60:	d1f7      	bne.n	8003e52 <_strtol_l.constprop.0+0xce>
 8003e62:	6011      	str	r1, [r2, #0]
 8003e64:	e79a      	b.n	8003d9c <_strtol_l.constprop.0+0x18>
 8003e66:	2430      	movs	r4, #48	; 0x30
 8003e68:	2b00      	cmp	r3, #0
 8003e6a:	d1b5      	bne.n	8003dd8 <_strtol_l.constprop.0+0x54>
 8003e6c:	2308      	movs	r3, #8
 8003e6e:	e7b3      	b.n	8003dd8 <_strtol_l.constprop.0+0x54>
 8003e70:	2c30      	cmp	r4, #48	; 0x30
 8003e72:	d0a9      	beq.n	8003dc8 <_strtol_l.constprop.0+0x44>
 8003e74:	230a      	movs	r3, #10
 8003e76:	e7af      	b.n	8003dd8 <_strtol_l.constprop.0+0x54>
 8003e78:	08004b08 	.word	0x08004b08

08003e7c <_strtol_r>:
 8003e7c:	f7ff bf82 	b.w	8003d84 <_strtol_l.constprop.0>

08003e80 <_strtoul_l.constprop.0>:
 8003e80:	e92d 43f0 	stmdb	sp!, {r4, r5, r6, r7, r8, r9, lr}
 8003e84:	4686      	mov	lr, r0
 8003e86:	460d      	mov	r5, r1
 8003e88:	4f35      	ldr	r7, [pc, #212]	; (8003f60 <_strtoul_l.constprop.0+0xe0>)
 8003e8a:	4628      	mov	r0, r5
 8003e8c:	f815 4b01 	ldrb.w	r4, [r5], #1
 8003e90:	5de6      	ldrb	r6, [r4, r7]
 8003e92:	f016 0608 	ands.w	r6, r6, #8
 8003e96:	d1f8      	bne.n	8003e8a <_strtoul_l.constprop.0+0xa>
 8003e98:	2c2d      	cmp	r4, #45	; 0x2d
 8003e9a:	d12f      	bne.n	8003efc <_strtoul_l.constprop.0+0x7c>
 8003e9c:	2601      	movs	r6, #1
 8003e9e:	782c      	ldrb	r4, [r5, #0]
 8003ea0:	1c85      	adds	r5, r0, #2
 8003ea2:	2b00      	cmp	r3, #0
 8003ea4:	d057      	beq.n	8003f56 <_strtoul_l.constprop.0+0xd6>
 8003ea6:	2b10      	cmp	r3, #16
 8003ea8:	d109      	bne.n	8003ebe <_strtoul_l.constprop.0+0x3e>
 8003eaa:	2c30      	cmp	r4, #48	; 0x30
 8003eac:	d107      	bne.n	8003ebe <_strtoul_l.constprop.0+0x3e>
 8003eae:	7828      	ldrb	r0, [r5, #0]
 8003eb0:	f000 00df 	and.w	r0, r0, #223	; 0xdf
 8003eb4:	2858      	cmp	r0, #88	; 0x58
 8003eb6:	d149      	bne.n	8003f4c <_strtoul_l.constprop.0+0xcc>
 8003eb8:	2310      	movs	r3, #16
 8003eba:	786c      	ldrb	r4, [r5, #1]
 8003ebc:	3502      	adds	r5, #2
 8003ebe:	f04f 38ff 	mov.w	r8, #4294967295
 8003ec2:	fbb8 f8f3 	udiv	r8, r8, r3
 8003ec6:	2700      	movs	r7, #0
 8003ec8:	fb03 f908 	mul.w	r9, r3, r8
 8003ecc:	4638      	mov	r0, r7
 8003ece:	ea6f 0909 	mvn.w	r9, r9
 8003ed2:	f1a4 0c30 	sub.w	ip, r4, #48	; 0x30
 8003ed6:	f1bc 0f09 	cmp.w	ip, #9
 8003eda:	d814      	bhi.n	8003f06 <_strtoul_l.constprop.0+0x86>
 8003edc:	4664      	mov	r4, ip
 8003ede:	42a3      	cmp	r3, r4
 8003ee0:	dd22      	ble.n	8003f28 <_strtoul_l.constprop.0+0xa8>
 8003ee2:	2f00      	cmp	r7, #0
 8003ee4:	db1d      	blt.n	8003f22 <_strtoul_l.constprop.0+0xa2>
 8003ee6:	4580      	cmp	r8, r0
 8003ee8:	d31b      	bcc.n	8003f22 <_strtoul_l.constprop.0+0xa2>
 8003eea:	d101      	bne.n	8003ef0 <_strtoul_l.constprop.0+0x70>
 8003eec:	45a1      	cmp	r9, r4
 8003eee:	db18      	blt.n	8003f22 <_strtoul_l.constprop.0+0xa2>
 8003ef0:	2701      	movs	r7, #1
 8003ef2:	fb00 4003 	mla	r0, r0, r3, r4
 8003ef6:	f815 4b01 	ldrb.w	r4, [r5], #1
 8003efa:	e7ea      	b.n	8003ed2 <_strtoul_l.constprop.0+0x52>
 8003efc:	2c2b      	cmp	r4, #43	; 0x2b
 8003efe:	bf04      	itt	eq
 8003f00:	782c      	ldrbeq	r4, [r5, #0]
 8003f02:	1c85      	addeq	r5, r0, #2
 8003f04:	e7cd      	b.n	8003ea2 <_strtoul_l.constprop.0+0x22>
 8003f06:	f1a4 0c41 	sub.w	ip, r4, #65	; 0x41
 8003f0a:	f1bc 0f19 	cmp.w	ip, #25
 8003f0e:	d801      	bhi.n	8003f14 <_strtoul_l.constprop.0+0x94>
 8003f10:	3c37      	subs	r4, #55	; 0x37
 8003f12:	e7e4      	b.n	8003ede <_strtoul_l.constprop.0+0x5e>
 8003f14:	f1a4 0c61 	sub.w	ip, r4, #97	; 0x61
 8003f18:	f1bc 0f19 	cmp.w	ip, #25
 8003f1c:	d804      	bhi.n	8003f28 <_strtoul_l.constprop.0+0xa8>
 8003f1e:	3c57      	subs	r4, #87	; 0x57
 8003f20:	e7dd      	b.n	8003ede <_strtoul_l.constprop.0+0x5e>
 8003f22:	f04f 37ff 	mov.w	r7, #4294967295
 8003f26:	e7e6      	b.n	8003ef6 <_strtoul_l.constprop.0+0x76>
 8003f28:	2f00      	cmp	r7, #0
 8003f2a:	da07      	bge.n	8003f3c <_strtoul_l.constprop.0+0xbc>
 8003f2c:	2322      	movs	r3, #34	; 0x22
 8003f2e:	f04f 30ff 	mov.w	r0, #4294967295
 8003f32:	f8ce 3000 	str.w	r3, [lr]
 8003f36:	b932      	cbnz	r2, 8003f46 <_strtoul_l.constprop.0+0xc6>
 8003f38:	e8bd 83f0 	ldmia.w	sp!, {r4, r5, r6, r7, r8, r9, pc}
 8003f3c:	b106      	cbz	r6, 8003f40 <_strtoul_l.constprop.0+0xc0>
 8003f3e:	4240      	negs	r0, r0
 8003f40:	2a00      	cmp	r2, #0
 8003f42:	d0f9      	beq.n	8003f38 <_strtoul_l.constprop.0+0xb8>
 8003f44:	b107      	cbz	r7, 8003f48 <_strtoul_l.constprop.0+0xc8>
 8003f46:	1e69      	subs	r1, r5, #1
 8003f48:	6011      	str	r1, [r2, #0]
 8003f4a:	e7f5      	b.n	8003f38 <_strtoul_l.constprop.0+0xb8>
 8003f4c:	2430      	movs	r4, #48	; 0x30
 8003f4e:	2b00      	cmp	r3, #0
 8003f50:	d1b5      	bne.n	8003ebe <_strtoul_l.constprop.0+0x3e>
 8003f52:	2308      	movs	r3, #8
 8003f54:	e7b3      	b.n	8003ebe <_strtoul_l.constprop.0+0x3e>
 8003f56:	2c30      	cmp	r4, #48	; 0x30
 8003f58:	d0a9      	beq.n	8003eae <_strtoul_l.constprop.0+0x2e>
 8003f5a:	230a      	movs	r3, #10
 8003f5c:	e7af      	b.n	8003ebe <_strtoul_l.constprop.0+0x3e>
 8003f5e:	bf00      	nop
 8003f60:	08004b08 	.word	0x08004b08

08003f64 <_strtoul_r>:
 8003f64:	f7ff bf8c 	b.w	8003e80 <_strtoul_l.constprop.0>

08003f68 <__submore>:
 8003f68:	e92d 41f0 	stmdb	sp!, {r4, r5, r6, r7, r8, lr}
 8003f6c:	460c      	mov	r4, r1
 8003f6e:	6b49      	ldr	r1, [r1, #52]	; 0x34
 8003f70:	f104 0344 	add.w	r3, r4, #68	; 0x44
 8003f74:	4299      	cmp	r1, r3
 8003f76:	d11b      	bne.n	8003fb0 <__submore+0x48>
 8003f78:	f44f 6180 	mov.w	r1, #1024	; 0x400
 8003f7c:	f7fe fec4 	bl	8002d08 <_malloc_r>
 8003f80:	b918      	cbnz	r0, 8003f8a <__submore+0x22>
 8003f82:	f04f 30ff 	mov.w	r0, #4294967295
 8003f86:	e8bd 81f0 	ldmia.w	sp!, {r4, r5, r6, r7, r8, pc}
 8003f8a:	f44f 6380 	mov.w	r3, #1024	; 0x400
 8003f8e:	63a3      	str	r3, [r4, #56]	; 0x38
 8003f90:	f894 3046 	ldrb.w	r3, [r4, #70]	; 0x46
 8003f94:	6360      	str	r0, [r4, #52]	; 0x34
 8003f96:	f880 33ff 	strb.w	r3, [r0, #1023]	; 0x3ff
 8003f9a:	f894 3045 	ldrb.w	r3, [r4, #69]	; 0x45
 8003f9e:	f200 30fd 	addw	r0, r0, #1021	; 0x3fd
 8003fa2:	7043      	strb	r3, [r0, #1]
 8003fa4:	f894 3044 	ldrb.w	r3, [r4, #68]	; 0x44
 8003fa8:	7003      	strb	r3, [r0, #0]
 8003faa:	6020      	str	r0, [r4, #0]
 8003fac:	2000      	movs	r0, #0
 8003fae:	e7ea      	b.n	8003f86 <__submore+0x1e>
 8003fb0:	6ba6      	ldr	r6, [r4, #56]	; 0x38
 8003fb2:	0077      	lsls	r7, r6, #1
 8003fb4:	463a      	mov	r2, r7
 8003fb6:	f000 fb27 	bl	8004608 <_realloc_r>
 8003fba:	4605      	mov	r5, r0
 8003fbc:	2800      	cmp	r0, #0
 8003fbe:	d0e0      	beq.n	8003f82 <__submore+0x1a>
 8003fc0:	eb00 0806 	add.w	r8, r0, r6
 8003fc4:	4601      	mov	r1, r0
 8003fc6:	4632      	mov	r2, r6
 8003fc8:	4640      	mov	r0, r8
 8003fca:	f7fe fc91 	bl	80028f0 <memcpy>
 8003fce:	e9c4 570d 	strd	r5, r7, [r4, #52]	; 0x34
 8003fd2:	f8c4 8000 	str.w	r8, [r4]
 8003fd6:	e7e9      	b.n	8003fac <__submore+0x44>

08003fd8 <__swbuf_r>:
 8003fd8:	b5f8      	push	{r3, r4, r5, r6, r7, lr}
 8003fda:	460e      	mov	r6, r1
 8003fdc:	4614      	mov	r4, r2
 8003fde:	4605      	mov	r5, r0
 8003fe0:	b118      	cbz	r0, 8003fea <__swbuf_r+0x12>
 8003fe2:	6983      	ldr	r3, [r0, #24]
 8003fe4:	b90b      	cbnz	r3, 8003fea <__swbuf_r+0x12>
 8003fe6:	f000 f9d5 	bl	8004394 <__sinit>
 8003fea:	4b21      	ldr	r3, [pc, #132]	; (8004070 <__swbuf_r+0x98>)
 8003fec:	429c      	cmp	r4, r3
 8003fee:	d12b      	bne.n	8004048 <__swbuf_r+0x70>
 8003ff0:	686c      	ldr	r4, [r5, #4]
 8003ff2:	69a3      	ldr	r3, [r4, #24]
 8003ff4:	60a3      	str	r3, [r4, #8]
 8003ff6:	89a3      	ldrh	r3, [r4, #12]
 8003ff8:	071a      	lsls	r2, r3, #28
 8003ffa:	d52f      	bpl.n	800405c <__swbuf_r+0x84>
 8003ffc:	6923      	ldr	r3, [r4, #16]
 8003ffe:	b36b      	cbz	r3, 800405c <__swbuf_r+0x84>
 8004000:	6923      	ldr	r3, [r4, #16]
 8004002:	6820      	ldr	r0, [r4, #0]
 8004004:	b2f6      	uxtb	r6, r6
 8004006:	1ac0      	subs	r0, r0, r3
 8004008:	6963      	ldr	r3, [r4, #20]
 800400a:	4637      	mov	r7, r6
 800400c:	4283      	cmp	r3, r0
 800400e:	dc04      	bgt.n	800401a <__swbuf_r+0x42>
 8004010:	4621      	mov	r1, r4
 8004012:	4628      	mov	r0, r5
 8004014:	f000 f92a 	bl	800426c <_fflush_r>
 8004018:	bb30      	cbnz	r0, 8004068 <__swbuf_r+0x90>
 800401a:	68a3      	ldr	r3, [r4, #8]
 800401c:	3001      	adds	r0, #1
 800401e:	3b01      	subs	r3, #1
 8004020:	60a3      	str	r3, [r4, #8]
 8004022:	6823      	ldr	r3, [r4, #0]
 8004024:	1c5a      	adds	r2, r3, #1
 8004026:	6022      	str	r2, [r4, #0]
 8004028:	701e      	strb	r6, [r3, #0]
 800402a:	6963      	ldr	r3, [r4, #20]
 800402c:	4283      	cmp	r3, r0
 800402e:	d004      	beq.n	800403a <__swbuf_r+0x62>
 8004030:	89a3      	ldrh	r3, [r4, #12]
 8004032:	07db      	lsls	r3, r3, #31
 8004034:	d506      	bpl.n	8004044 <__swbuf_r+0x6c>
 8004036:	2e0a      	cmp	r6, #10
 8004038:	d104      	bne.n	8004044 <__swbuf_r+0x6c>
 800403a:	4621      	mov	r1, r4
 800403c:	4628      	mov	r0, r5
 800403e:	f000 f915 	bl	800426c <_fflush_r>
 8004042:	b988      	cbnz	r0, 8004068 <__swbuf_r+0x90>
 8004044:	4638      	mov	r0, r7
 8004046:	bdf8      	pop	{r3, r4, r5, r6, r7, pc}
 8004048:	4b0a      	ldr	r3, [pc, #40]	; (8004074 <__swbuf_r+0x9c>)
 800404a:	429c      	cmp	r4, r3
 800404c:	d101      	bne.n	8004052 <__swbuf_r+0x7a>
 800404e:	68ac      	ldr	r4, [r5, #8]
 8004050:	e7cf      	b.n	8003ff2 <__swbuf_r+0x1a>
 8004052:	4b09      	ldr	r3, [pc, #36]	; (8004078 <__swbuf_r+0xa0>)
 8004054:	429c      	cmp	r4, r3
 8004056:	bf08      	it	eq
 8004058:	68ec      	ldreq	r4, [r5, #12]
 800405a:	e7ca      	b.n	8003ff2 <__swbuf_r+0x1a>
 800405c:	4621      	mov	r1, r4
 800405e:	4628      	mov	r0, r5
 8004060:	f000 f80c 	bl	800407c <__swsetup_r>
 8004064:	2800      	cmp	r0, #0
 8004066:	d0cb      	beq.n	8004000 <__swbuf_r+0x28>
 8004068:	f04f 37ff 	mov.w	r7, #4294967295
 800406c:	e7ea      	b.n	8004044 <__swbuf_r+0x6c>
 800406e:	bf00      	nop
 8004070:	08004c28 	.word	0x08004c28
 8004074:	08004c48 	.word	0x08004c48
 8004078:	08004c08 	.word	0x08004c08

0800407c <__swsetup_r>:
 800407c:	4b32      	ldr	r3, [pc, #200]	; (8004148 <__swsetup_r+0xcc>)
 800407e:	b570      	push	{r4, r5, r6, lr}
 8004080:	681d      	ldr	r5, [r3, #0]
 8004082:	4606      	mov	r6, r0
 8004084:	460c      	mov	r4, r1
 8004086:	b125      	cbz	r5, 8004092 <__swsetup_r+0x16>
 8004088:	69ab      	ldr	r3, [r5, #24]
 800408a:	b913      	cbnz	r3, 8004092 <__swsetup_r+0x16>
 800408c:	4628      	mov	r0, r5
 800408e:	f000 f981 	bl	8004394 <__sinit>
 8004092:	4b2e      	ldr	r3, [pc, #184]	; (800414c <__swsetup_r+0xd0>)
 8004094:	429c      	cmp	r4, r3
 8004096:	d10f      	bne.n	80040b8 <__swsetup_r+0x3c>
 8004098:	686c      	ldr	r4, [r5, #4]
 800409a:	89a3      	ldrh	r3, [r4, #12]
 800409c:	f9b4 200c 	ldrsh.w	r2, [r4, #12]
 80040a0:	0719      	lsls	r1, r3, #28
 80040a2:	d42c      	bmi.n	80040fe <__swsetup_r+0x82>
 80040a4:	06dd      	lsls	r5, r3, #27
 80040a6:	d411      	bmi.n	80040cc <__swsetup_r+0x50>
 80040a8:	2309      	movs	r3, #9
 80040aa:	6033      	str	r3, [r6, #0]
 80040ac:	f042 0340 	orr.w	r3, r2, #64	; 0x40
 80040b0:	f04f 30ff 	mov.w	r0, #4294967295
 80040b4:	81a3      	strh	r3, [r4, #12]
 80040b6:	e03e      	b.n	8004136 <__swsetup_r+0xba>
 80040b8:	4b25      	ldr	r3, [pc, #148]	; (8004150 <__swsetup_r+0xd4>)
 80040ba:	429c      	cmp	r4, r3
 80040bc:	d101      	bne.n	80040c2 <__swsetup_r+0x46>
 80040be:	68ac      	ldr	r4, [r5, #8]
 80040c0:	e7eb      	b.n	800409a <__swsetup_r+0x1e>
 80040c2:	4b24      	ldr	r3, [pc, #144]	; (8004154 <__swsetup_r+0xd8>)
 80040c4:	429c      	cmp	r4, r3
 80040c6:	bf08      	it	eq
 80040c8:	68ec      	ldreq	r4, [r5, #12]
 80040ca:	e7e6      	b.n	800409a <__swsetup_r+0x1e>
 80040cc:	0758      	lsls	r0, r3, #29
 80040ce:	d512      	bpl.n	80040f6 <__swsetup_r+0x7a>
 80040d0:	6b61      	ldr	r1, [r4, #52]	; 0x34
 80040d2:	b141      	cbz	r1, 80040e6 <__swsetup_r+0x6a>
 80040d4:	f104 0344 	add.w	r3, r4, #68	; 0x44
 80040d8:	4299      	cmp	r1, r3
 80040da:	d002      	beq.n	80040e2 <__swsetup_r+0x66>
 80040dc:	4630      	mov	r0, r6
 80040de:	f7fe fdab 	bl	8002c38 <_free_r>
 80040e2:	2300      	movs	r3, #0
 80040e4:	6363      	str	r3, [r4, #52]	; 0x34
 80040e6:	89a3      	ldrh	r3, [r4, #12]
 80040e8:	f023 0324 	bic.w	r3, r3, #36	; 0x24
 80040ec:	81a3      	strh	r3, [r4, #12]
 80040ee:	2300      	movs	r3, #0
 80040f0:	6063      	str	r3, [r4, #4]
 80040f2:	6923      	ldr	r3, [r4, #16]
 80040f4:	6023      	str	r3, [r4, #0]
 80040f6:	89a3      	ldrh	r3, [r4, #12]
 80040f8:	f043 0308 	orr.w	r3, r3, #8
 80040fc:	81a3      	strh	r3, [r4, #12]
 80040fe:	6923      	ldr	r3, [r4, #16]
 8004100:	b94b      	cbnz	r3, 8004116 <__swsetup_r+0x9a>
 8004102:	89a3      	ldrh	r3, [r4, #12]
 8004104:	f403 7320 	and.w	r3, r3, #640	; 0x280
 8004108:	f5b3 7f00 	cmp.w	r3, #512	; 0x200
 800410c:	d003      	beq.n	8004116 <__swsetup_r+0x9a>
 800410e:	4621      	mov	r1, r4
 8004110:	4630      	mov	r0, r6
 8004112:	f000 fa05 	bl	8004520 <__smakebuf_r>
 8004116:	89a0      	ldrh	r0, [r4, #12]
 8004118:	f9b4 200c 	ldrsh.w	r2, [r4, #12]
 800411c:	f010 0301 	ands.w	r3, r0, #1
 8004120:	d00a      	beq.n	8004138 <__swsetup_r+0xbc>
 8004122:	2300      	movs	r3, #0
 8004124:	60a3      	str	r3, [r4, #8]
 8004126:	6963      	ldr	r3, [r4, #20]
 8004128:	425b      	negs	r3, r3
 800412a:	61a3      	str	r3, [r4, #24]
 800412c:	6923      	ldr	r3, [r4, #16]
 800412e:	b943      	cbnz	r3, 8004142 <__swsetup_r+0xc6>
 8004130:	f010 0080 	ands.w	r0, r0, #128	; 0x80
 8004134:	d1ba      	bne.n	80040ac <__swsetup_r+0x30>
 8004136:	bd70      	pop	{r4, r5, r6, pc}
 8004138:	0781      	lsls	r1, r0, #30
 800413a:	bf58      	it	pl
 800413c:	6963      	ldrpl	r3, [r4, #20]
 800413e:	60a3      	str	r3, [r4, #8]
 8004140:	e7f4      	b.n	800412c <__swsetup_r+0xb0>
 8004142:	2000      	movs	r0, #0
 8004144:	e7f7      	b.n	8004136 <__swsetup_r+0xba>
 8004146:	bf00      	nop
 8004148:	200000b0 	.word	0x200000b0
 800414c:	08004c28 	.word	0x08004c28
 8004150:	08004c48 	.word	0x08004c48
 8004154:	08004c08 	.word	0x08004c08

08004158 <abort>:
 8004158:	2006      	movs	r0, #6
 800415a:	b508      	push	{r3, lr}
 800415c:	f000 faac 	bl	80046b8 <raise>
 8004160:	2001      	movs	r0, #1
 8004162:	f7fc fd45 	bl	8000bf0 <_exit>
	...

08004168 <__sflush_r>:
 8004168:	898a      	ldrh	r2, [r1, #12]
 800416a:	b5f8      	push	{r3, r4, r5, r6, r7, lr}
 800416c:	4605      	mov	r5, r0
 800416e:	0710      	lsls	r0, r2, #28
 8004170:	460c      	mov	r4, r1
 8004172:	d457      	bmi.n	8004224 <__sflush_r+0xbc>
 8004174:	684b      	ldr	r3, [r1, #4]
 8004176:	2b00      	cmp	r3, #0
 8004178:	dc04      	bgt.n	8004184 <__sflush_r+0x1c>
 800417a:	6c0b      	ldr	r3, [r1, #64]	; 0x40
 800417c:	2b00      	cmp	r3, #0
 800417e:	dc01      	bgt.n	8004184 <__sflush_r+0x1c>
 8004180:	2000      	movs	r0, #0
 8004182:	bdf8      	pop	{r3, r4, r5, r6, r7, pc}
 8004184:	6ae6      	ldr	r6, [r4, #44]	; 0x2c
 8004186:	2e00      	cmp	r6, #0
 8004188:	d0fa      	beq.n	8004180 <__sflush_r+0x18>
 800418a:	2300      	movs	r3, #0
 800418c:	f412 5280 	ands.w	r2, r2, #4096	; 0x1000
 8004190:	682f      	ldr	r7, [r5, #0]
 8004192:	602b      	str	r3, [r5, #0]
 8004194:	d032      	beq.n	80041fc <__sflush_r+0x94>
 8004196:	6d60      	ldr	r0, [r4, #84]	; 0x54
 8004198:	89a3      	ldrh	r3, [r4, #12]
 800419a:	075a      	lsls	r2, r3, #29
 800419c:	d505      	bpl.n	80041aa <__sflush_r+0x42>
 800419e:	6863      	ldr	r3, [r4, #4]
 80041a0:	1ac0      	subs	r0, r0, r3
 80041a2:	6b63      	ldr	r3, [r4, #52]	; 0x34
 80041a4:	b10b      	cbz	r3, 80041aa <__sflush_r+0x42>
 80041a6:	6c23      	ldr	r3, [r4, #64]	; 0x40
 80041a8:	1ac0      	subs	r0, r0, r3
 80041aa:	2300      	movs	r3, #0
 80041ac:	4602      	mov	r2, r0
 80041ae:	6ae6      	ldr	r6, [r4, #44]	; 0x2c
 80041b0:	4628      	mov	r0, r5
 80041b2:	6a21      	ldr	r1, [r4, #32]
 80041b4:	47b0      	blx	r6
 80041b6:	1c43      	adds	r3, r0, #1
 80041b8:	89a3      	ldrh	r3, [r4, #12]
 80041ba:	d106      	bne.n	80041ca <__sflush_r+0x62>
 80041bc:	6829      	ldr	r1, [r5, #0]
 80041be:	291d      	cmp	r1, #29
 80041c0:	d82c      	bhi.n	800421c <__sflush_r+0xb4>
 80041c2:	4a29      	ldr	r2, [pc, #164]	; (8004268 <__sflush_r+0x100>)
 80041c4:	40ca      	lsrs	r2, r1
 80041c6:	07d6      	lsls	r6, r2, #31
 80041c8:	d528      	bpl.n	800421c <__sflush_r+0xb4>
 80041ca:	2200      	movs	r2, #0
 80041cc:	6062      	str	r2, [r4, #4]
 80041ce:	6922      	ldr	r2, [r4, #16]
 80041d0:	04d9      	lsls	r1, r3, #19
 80041d2:	6022      	str	r2, [r4, #0]
 80041d4:	d504      	bpl.n	80041e0 <__sflush_r+0x78>
 80041d6:	1c42      	adds	r2, r0, #1
 80041d8:	d101      	bne.n	80041de <__sflush_r+0x76>
 80041da:	682b      	ldr	r3, [r5, #0]
 80041dc:	b903      	cbnz	r3, 80041e0 <__sflush_r+0x78>
 80041de:	6560      	str	r0, [r4, #84]	; 0x54
 80041e0:	6b61      	ldr	r1, [r4, #52]	; 0x34
 80041e2:	602f      	str	r7, [r5, #0]
 80041e4:	2900      	cmp	r1, #0
 80041e6:	d0cb      	beq.n	8004180 <__sflush_r+0x18>
 80041e8:	f104 0344 	add.w	r3, r4, #68	; 0x44
 80041ec:	4299      	cmp	r1, r3
 80041ee:	d002      	beq.n	80041f6 <__sflush_r+0x8e>
 80041f0:	4628      	mov	r0, r5
 80041f2:	f7fe fd21 	bl	8002c38 <_free_r>
 80041f6:	2000      	movs	r0, #0
 80041f8:	6360      	str	r0, [r4, #52]	; 0x34
 80041fa:	e7c2      	b.n	8004182 <__sflush_r+0x1a>
 80041fc:	6a21      	ldr	r1, [r4, #32]
 80041fe:	2301      	movs	r3, #1
 8004200:	4628      	mov	r0, r5
 8004202:	47b0      	blx	r6
 8004204:	1c41      	adds	r1, r0, #1
 8004206:	d1c7      	bne.n	8004198 <__sflush_r+0x30>
 8004208:	682b      	ldr	r3, [r5, #0]
 800420a:	2b00      	cmp	r3, #0
 800420c:	d0c4      	beq.n	8004198 <__sflush_r+0x30>
 800420e:	2b1d      	cmp	r3, #29
 8004210:	d001      	beq.n	8004216 <__sflush_r+0xae>
 8004212:	2b16      	cmp	r3, #22
 8004214:	d101      	bne.n	800421a <__sflush_r+0xb2>
 8004216:	602f      	str	r7, [r5, #0]
 8004218:	e7b2      	b.n	8004180 <__sflush_r+0x18>
 800421a:	89a3      	ldrh	r3, [r4, #12]
 800421c:	f043 0340 	orr.w	r3, r3, #64	; 0x40
 8004220:	81a3      	strh	r3, [r4, #12]
 8004222:	e7ae      	b.n	8004182 <__sflush_r+0x1a>
 8004224:	690f      	ldr	r7, [r1, #16]
 8004226:	2f00      	cmp	r7, #0
 8004228:	d0aa      	beq.n	8004180 <__sflush_r+0x18>
 800422a:	0793      	lsls	r3, r2, #30
 800422c:	bf18      	it	ne
 800422e:	2300      	movne	r3, #0
 8004230:	680e      	ldr	r6, [r1, #0]
 8004232:	bf08      	it	eq
 8004234:	694b      	ldreq	r3, [r1, #20]
 8004236:	1bf6      	subs	r6, r6, r7
 8004238:	600f      	str	r7, [r1, #0]
 800423a:	608b      	str	r3, [r1, #8]
 800423c:	2e00      	cmp	r6, #0
 800423e:	dd9f      	ble.n	8004180 <__sflush_r+0x18>
 8004240:	4633      	mov	r3, r6
 8004242:	463a      	mov	r2, r7
 8004244:	4628      	mov	r0, r5
 8004246:	6a21      	ldr	r1, [r4, #32]
 8004248:	f8d4 c028 	ldr.w	ip, [r4, #40]	; 0x28
 800424c:	47e0      	blx	ip
 800424e:	2800      	cmp	r0, #0
 8004250:	dc06      	bgt.n	8004260 <__sflush_r+0xf8>
 8004252:	89a3      	ldrh	r3, [r4, #12]
 8004254:	f04f 30ff 	mov.w	r0, #4294967295
 8004258:	f043 0340 	orr.w	r3, r3, #64	; 0x40
 800425c:	81a3      	strh	r3, [r4, #12]
 800425e:	e790      	b.n	8004182 <__sflush_r+0x1a>
 8004260:	4407      	add	r7, r0
 8004262:	1a36      	subs	r6, r6, r0
 8004264:	e7ea      	b.n	800423c <__sflush_r+0xd4>
 8004266:	bf00      	nop
 8004268:	20400001 	.word	0x20400001

0800426c <_fflush_r>:
 800426c:	b538      	push	{r3, r4, r5, lr}
 800426e:	690b      	ldr	r3, [r1, #16]
 8004270:	4605      	mov	r5, r0
 8004272:	460c      	mov	r4, r1
 8004274:	b913      	cbnz	r3, 800427c <_fflush_r+0x10>
 8004276:	2500      	movs	r5, #0
 8004278:	4628      	mov	r0, r5
 800427a:	bd38      	pop	{r3, r4, r5, pc}
 800427c:	b118      	cbz	r0, 8004286 <_fflush_r+0x1a>
 800427e:	6983      	ldr	r3, [r0, #24]
 8004280:	b90b      	cbnz	r3, 8004286 <_fflush_r+0x1a>
 8004282:	f000 f887 	bl	8004394 <__sinit>
 8004286:	4b14      	ldr	r3, [pc, #80]	; (80042d8 <_fflush_r+0x6c>)
 8004288:	429c      	cmp	r4, r3
 800428a:	d11b      	bne.n	80042c4 <_fflush_r+0x58>
 800428c:	686c      	ldr	r4, [r5, #4]
 800428e:	f9b4 300c 	ldrsh.w	r3, [r4, #12]
 8004292:	2b00      	cmp	r3, #0
 8004294:	d0ef      	beq.n	8004276 <_fflush_r+0xa>
 8004296:	6e62      	ldr	r2, [r4, #100]	; 0x64
 8004298:	07d0      	lsls	r0, r2, #31
 800429a:	d404      	bmi.n	80042a6 <_fflush_r+0x3a>
 800429c:	0599      	lsls	r1, r3, #22
 800429e:	d402      	bmi.n	80042a6 <_fflush_r+0x3a>
 80042a0:	6da0      	ldr	r0, [r4, #88]	; 0x58
 80042a2:	f000 f915 	bl	80044d0 <__retarget_lock_acquire_recursive>
 80042a6:	4628      	mov	r0, r5
 80042a8:	4621      	mov	r1, r4
 80042aa:	f7ff ff5d 	bl	8004168 <__sflush_r>
 80042ae:	6e63      	ldr	r3, [r4, #100]	; 0x64
 80042b0:	4605      	mov	r5, r0
 80042b2:	07da      	lsls	r2, r3, #31
 80042b4:	d4e0      	bmi.n	8004278 <_fflush_r+0xc>
 80042b6:	89a3      	ldrh	r3, [r4, #12]
 80042b8:	059b      	lsls	r3, r3, #22
 80042ba:	d4dd      	bmi.n	8004278 <_fflush_r+0xc>
 80042bc:	6da0      	ldr	r0, [r4, #88]	; 0x58
 80042be:	f000 f908 	bl	80044d2 <__retarget_lock_release_recursive>
 80042c2:	e7d9      	b.n	8004278 <_fflush_r+0xc>
 80042c4:	4b05      	ldr	r3, [pc, #20]	; (80042dc <_fflush_r+0x70>)
 80042c6:	429c      	cmp	r4, r3
 80042c8:	d101      	bne.n	80042ce <_fflush_r+0x62>
 80042ca:	68ac      	ldr	r4, [r5, #8]
 80042cc:	e7df      	b.n	800428e <_fflush_r+0x22>
 80042ce:	4b04      	ldr	r3, [pc, #16]	; (80042e0 <_fflush_r+0x74>)
 80042d0:	429c      	cmp	r4, r3
 80042d2:	bf08      	it	eq
 80042d4:	68ec      	ldreq	r4, [r5, #12]
 80042d6:	e7da      	b.n	800428e <_fflush_r+0x22>
 80042d8:	08004c28 	.word	0x08004c28
 80042dc:	08004c48 	.word	0x08004c48
 80042e0:	08004c08 	.word	0x08004c08

080042e4 <std>:
 80042e4:	2300      	movs	r3, #0
 80042e6:	b510      	push	{r4, lr}
 80042e8:	4604      	mov	r4, r0
 80042ea:	e9c0 3300 	strd	r3, r3, [r0]
 80042ee:	e9c0 3304 	strd	r3, r3, [r0, #16]
 80042f2:	6083      	str	r3, [r0, #8]
 80042f4:	8181      	strh	r1, [r0, #12]
 80042f6:	6643      	str	r3, [r0, #100]	; 0x64
 80042f8:	81c2      	strh	r2, [r0, #14]
 80042fa:	6183      	str	r3, [r0, #24]
 80042fc:	4619      	mov	r1, r3
 80042fe:	2208      	movs	r2, #8
 8004300:	305c      	adds	r0, #92	; 0x5c
 8004302:	f7fe fb03 	bl	800290c <memset>
 8004306:	4b05      	ldr	r3, [pc, #20]	; (800431c <std+0x38>)
 8004308:	6224      	str	r4, [r4, #32]
 800430a:	6263      	str	r3, [r4, #36]	; 0x24
 800430c:	4b04      	ldr	r3, [pc, #16]	; (8004320 <std+0x3c>)
 800430e:	62a3      	str	r3, [r4, #40]	; 0x28
 8004310:	4b04      	ldr	r3, [pc, #16]	; (8004324 <std+0x40>)
 8004312:	62e3      	str	r3, [r4, #44]	; 0x2c
 8004314:	4b04      	ldr	r3, [pc, #16]	; (8004328 <std+0x44>)
 8004316:	6323      	str	r3, [r4, #48]	; 0x30
 8004318:	bd10      	pop	{r4, pc}
 800431a:	bf00      	nop
 800431c:	080029b1 	.word	0x080029b1
 8004320:	080029d7 	.word	0x080029d7
 8004324:	08002a0f 	.word	0x08002a0f
 8004328:	08002a33 	.word	0x08002a33

0800432c <_cleanup_r>:
 800432c:	4901      	ldr	r1, [pc, #4]	; (8004334 <_cleanup_r+0x8>)
 800432e:	f000 b8af 	b.w	8004490 <_fwalk_reent>
 8004332:	bf00      	nop
 8004334:	0800426d 	.word	0x0800426d

08004338 <__sfmoreglue>:
 8004338:	2268      	movs	r2, #104	; 0x68
 800433a:	b570      	push	{r4, r5, r6, lr}
 800433c:	1e4d      	subs	r5, r1, #1
 800433e:	4355      	muls	r5, r2
 8004340:	460e      	mov	r6, r1
 8004342:	f105 0174 	add.w	r1, r5, #116	; 0x74
 8004346:	f7fe fcdf 	bl	8002d08 <_malloc_r>
 800434a:	4604      	mov	r4, r0
 800434c:	b140      	cbz	r0, 8004360 <__sfmoreglue+0x28>
 800434e:	2100      	movs	r1, #0
 8004350:	e9c0 1600 	strd	r1, r6, [r0]
 8004354:	300c      	adds	r0, #12
 8004356:	60a0      	str	r0, [r4, #8]
 8004358:	f105 0268 	add.w	r2, r5, #104	; 0x68
 800435c:	f7fe fad6 	bl	800290c <memset>
 8004360:	4620      	mov	r0, r4
 8004362:	bd70      	pop	{r4, r5, r6, pc}

08004364 <__sfp_lock_acquire>:
 8004364:	4801      	ldr	r0, [pc, #4]	; (800436c <__sfp_lock_acquire+0x8>)
 8004366:	f000 b8b3 	b.w	80044d0 <__retarget_lock_acquire_recursive>
 800436a:	bf00      	nop
 800436c:	20000465 	.word	0x20000465

08004370 <__sfp_lock_release>:
 8004370:	4801      	ldr	r0, [pc, #4]	; (8004378 <__sfp_lock_release+0x8>)
 8004372:	f000 b8ae 	b.w	80044d2 <__retarget_lock_release_recursive>
 8004376:	bf00      	nop
 8004378:	20000465 	.word	0x20000465

0800437c <__sinit_lock_acquire>:
 800437c:	4801      	ldr	r0, [pc, #4]	; (8004384 <__sinit_lock_acquire+0x8>)
 800437e:	f000 b8a7 	b.w	80044d0 <__retarget_lock_acquire_recursive>
 8004382:	bf00      	nop
 8004384:	20000466 	.word	0x20000466

08004388 <__sinit_lock_release>:
 8004388:	4801      	ldr	r0, [pc, #4]	; (8004390 <__sinit_lock_release+0x8>)
 800438a:	f000 b8a2 	b.w	80044d2 <__retarget_lock_release_recursive>
 800438e:	bf00      	nop
 8004390:	20000466 	.word	0x20000466

08004394 <__sinit>:
 8004394:	b510      	push	{r4, lr}
 8004396:	4604      	mov	r4, r0
 8004398:	f7ff fff0 	bl	800437c <__sinit_lock_acquire>
 800439c:	69a3      	ldr	r3, [r4, #24]
 800439e:	b11b      	cbz	r3, 80043a8 <__sinit+0x14>
 80043a0:	e8bd 4010 	ldmia.w	sp!, {r4, lr}
 80043a4:	f7ff bff0 	b.w	8004388 <__sinit_lock_release>
 80043a8:	e9c4 3312 	strd	r3, r3, [r4, #72]	; 0x48
 80043ac:	6523      	str	r3, [r4, #80]	; 0x50
 80043ae:	4b13      	ldr	r3, [pc, #76]	; (80043fc <__sinit+0x68>)
 80043b0:	4a13      	ldr	r2, [pc, #76]	; (8004400 <__sinit+0x6c>)
 80043b2:	681b      	ldr	r3, [r3, #0]
 80043b4:	62a2      	str	r2, [r4, #40]	; 0x28
 80043b6:	42a3      	cmp	r3, r4
 80043b8:	bf08      	it	eq
 80043ba:	2301      	moveq	r3, #1
 80043bc:	4620      	mov	r0, r4
 80043be:	bf08      	it	eq
 80043c0:	61a3      	streq	r3, [r4, #24]
 80043c2:	f000 f81f 	bl	8004404 <__sfp>
 80043c6:	6060      	str	r0, [r4, #4]
 80043c8:	4620      	mov	r0, r4
 80043ca:	f000 f81b 	bl	8004404 <__sfp>
 80043ce:	60a0      	str	r0, [r4, #8]
 80043d0:	4620      	mov	r0, r4
 80043d2:	f000 f817 	bl	8004404 <__sfp>
 80043d6:	2200      	movs	r2, #0
 80043d8:	2104      	movs	r1, #4
 80043da:	60e0      	str	r0, [r4, #12]
 80043dc:	6860      	ldr	r0, [r4, #4]
 80043de:	f7ff ff81 	bl	80042e4 <std>
 80043e2:	2201      	movs	r2, #1
 80043e4:	2109      	movs	r1, #9
 80043e6:	68a0      	ldr	r0, [r4, #8]
 80043e8:	f7ff ff7c 	bl	80042e4 <std>
 80043ec:	2202      	movs	r2, #2
 80043ee:	2112      	movs	r1, #18
 80043f0:	68e0      	ldr	r0, [r4, #12]
 80043f2:	f7ff ff77 	bl	80042e4 <std>
 80043f6:	2301      	movs	r3, #1
 80043f8:	61a3      	str	r3, [r4, #24]
 80043fa:	e7d1      	b.n	80043a0 <__sinit+0xc>
 80043fc:	08004a08 	.word	0x08004a08
 8004400:	0800432d 	.word	0x0800432d

08004404 <__sfp>:
 8004404:	b5f8      	push	{r3, r4, r5, r6, r7, lr}
 8004406:	4607      	mov	r7, r0
 8004408:	f7ff ffac 	bl	8004364 <__sfp_lock_acquire>
 800440c:	4b1e      	ldr	r3, [pc, #120]	; (8004488 <__sfp+0x84>)
 800440e:	681e      	ldr	r6, [r3, #0]
 8004410:	69b3      	ldr	r3, [r6, #24]
 8004412:	b913      	cbnz	r3, 800441a <__sfp+0x16>
 8004414:	4630      	mov	r0, r6
 8004416:	f7ff ffbd 	bl	8004394 <__sinit>
 800441a:	3648      	adds	r6, #72	; 0x48
 800441c:	e9d6 3401 	ldrd	r3, r4, [r6, #4]
 8004420:	3b01      	subs	r3, #1
 8004422:	d503      	bpl.n	800442c <__sfp+0x28>
 8004424:	6833      	ldr	r3, [r6, #0]
 8004426:	b30b      	cbz	r3, 800446c <__sfp+0x68>
 8004428:	6836      	ldr	r6, [r6, #0]
 800442a:	e7f7      	b.n	800441c <__sfp+0x18>
 800442c:	f9b4 500c 	ldrsh.w	r5, [r4, #12]
 8004430:	b9d5      	cbnz	r5, 8004468 <__sfp+0x64>
 8004432:	4b16      	ldr	r3, [pc, #88]	; (800448c <__sfp+0x88>)
 8004434:	f104 0058 	add.w	r0, r4, #88	; 0x58
 8004438:	60e3      	str	r3, [r4, #12]
 800443a:	6665      	str	r5, [r4, #100]	; 0x64
 800443c:	f000 f847 	bl	80044ce <__retarget_lock_init_recursive>
 8004440:	f7ff ff96 	bl	8004370 <__sfp_lock_release>
 8004444:	2208      	movs	r2, #8
 8004446:	4629      	mov	r1, r5
 8004448:	e9c4 5501 	strd	r5, r5, [r4, #4]
 800444c:	e9c4 5504 	strd	r5, r5, [r4, #16]
 8004450:	6025      	str	r5, [r4, #0]
 8004452:	61a5      	str	r5, [r4, #24]
 8004454:	f104 005c 	add.w	r0, r4, #92	; 0x5c
 8004458:	f7fe fa58 	bl	800290c <memset>
 800445c:	e9c4 550d 	strd	r5, r5, [r4, #52]	; 0x34
 8004460:	e9c4 5512 	strd	r5, r5, [r4, #72]	; 0x48
 8004464:	4620      	mov	r0, r4
 8004466:	bdf8      	pop	{r3, r4, r5, r6, r7, pc}
 8004468:	3468      	adds	r4, #104	; 0x68
 800446a:	e7d9      	b.n	8004420 <__sfp+0x1c>
 800446c:	2104      	movs	r1, #4
 800446e:	4638      	mov	r0, r7
 8004470:	f7ff ff62 	bl	8004338 <__sfmoreglue>
 8004474:	4604      	mov	r4, r0
 8004476:	6030      	str	r0, [r6, #0]
 8004478:	2800      	cmp	r0, #0
 800447a:	d1d5      	bne.n	8004428 <__sfp+0x24>
 800447c:	f7ff ff78 	bl	8004370 <__sfp_lock_release>
 8004480:	230c      	movs	r3, #12
 8004482:	603b      	str	r3, [r7, #0]
 8004484:	e7ee      	b.n	8004464 <__sfp+0x60>
 8004486:	bf00      	nop
 8004488:	08004a08 	.word	0x08004a08
 800448c:	ffff0001 	.word	0xffff0001

08004490 <_fwalk_reent>:
 8004490:	e92d 43f8 	stmdb	sp!, {r3, r4, r5, r6, r7, r8, r9, lr}
 8004494:	4606      	mov	r6, r0
 8004496:	4688      	mov	r8, r1
 8004498:	2700      	movs	r7, #0
 800449a:	f100 0448 	add.w	r4, r0, #72	; 0x48
 800449e:	e9d4 9501 	ldrd	r9, r5, [r4, #4]
 80044a2:	f1b9 0901 	subs.w	r9, r9, #1
 80044a6:	d505      	bpl.n	80044b4 <_fwalk_reent+0x24>
 80044a8:	6824      	ldr	r4, [r4, #0]
 80044aa:	2c00      	cmp	r4, #0
 80044ac:	d1f7      	bne.n	800449e <_fwalk_reent+0xe>
 80044ae:	4638      	mov	r0, r7
 80044b0:	e8bd 83f8 	ldmia.w	sp!, {r3, r4, r5, r6, r7, r8, r9, pc}
 80044b4:	89ab      	ldrh	r3, [r5, #12]
 80044b6:	2b01      	cmp	r3, #1
 80044b8:	d907      	bls.n	80044ca <_fwalk_reent+0x3a>
 80044ba:	f9b5 300e 	ldrsh.w	r3, [r5, #14]
 80044be:	3301      	adds	r3, #1
 80044c0:	d003      	beq.n	80044ca <_fwalk_reent+0x3a>
 80044c2:	4629      	mov	r1, r5
 80044c4:	4630      	mov	r0, r6
 80044c6:	47c0      	blx	r8
 80044c8:	4307      	orrs	r7, r0
 80044ca:	3568      	adds	r5, #104	; 0x68
 80044cc:	e7e9      	b.n	80044a2 <_fwalk_reent+0x12>

080044ce <__retarget_lock_init_recursive>:
 80044ce:	4770      	bx	lr

080044d0 <__retarget_lock_acquire_recursive>:
 80044d0:	4770      	bx	lr

080044d2 <__retarget_lock_release_recursive>:
 80044d2:	4770      	bx	lr

080044d4 <__swhatbuf_r>:
 80044d4:	b570      	push	{r4, r5, r6, lr}
 80044d6:	460e      	mov	r6, r1
 80044d8:	f9b1 100e 	ldrsh.w	r1, [r1, #14]
 80044dc:	4614      	mov	r4, r2
 80044de:	2900      	cmp	r1, #0
 80044e0:	461d      	mov	r5, r3
 80044e2:	b096      	sub	sp, #88	; 0x58
 80044e4:	da08      	bge.n	80044f8 <__swhatbuf_r+0x24>
 80044e6:	2200      	movs	r2, #0
 80044e8:	f9b6 300c 	ldrsh.w	r3, [r6, #12]
 80044ec:	602a      	str	r2, [r5, #0]
 80044ee:	061a      	lsls	r2, r3, #24
 80044f0:	d410      	bmi.n	8004514 <__swhatbuf_r+0x40>
 80044f2:	f44f 6380 	mov.w	r3, #1024	; 0x400
 80044f6:	e00e      	b.n	8004516 <__swhatbuf_r+0x42>
 80044f8:	466a      	mov	r2, sp
 80044fa:	f000 f8f9 	bl	80046f0 <_fstat_r>
 80044fe:	2800      	cmp	r0, #0
 8004500:	dbf1      	blt.n	80044e6 <__swhatbuf_r+0x12>
 8004502:	9a01      	ldr	r2, [sp, #4]
 8004504:	f402 4270 	and.w	r2, r2, #61440	; 0xf000
 8004508:	f5a2 5300 	sub.w	r3, r2, #8192	; 0x2000
 800450c:	425a      	negs	r2, r3
 800450e:	415a      	adcs	r2, r3
 8004510:	602a      	str	r2, [r5, #0]
 8004512:	e7ee      	b.n	80044f2 <__swhatbuf_r+0x1e>
 8004514:	2340      	movs	r3, #64	; 0x40
 8004516:	2000      	movs	r0, #0
 8004518:	6023      	str	r3, [r4, #0]
 800451a:	b016      	add	sp, #88	; 0x58
 800451c:	bd70      	pop	{r4, r5, r6, pc}
	...

08004520 <__smakebuf_r>:
 8004520:	898b      	ldrh	r3, [r1, #12]
 8004522:	b573      	push	{r0, r1, r4, r5, r6, lr}
 8004524:	079d      	lsls	r5, r3, #30
 8004526:	4606      	mov	r6, r0
 8004528:	460c      	mov	r4, r1
 800452a:	d507      	bpl.n	800453c <__smakebuf_r+0x1c>
 800452c:	f104 0347 	add.w	r3, r4, #71	; 0x47
 8004530:	6023      	str	r3, [r4, #0]
 8004532:	6123      	str	r3, [r4, #16]
 8004534:	2301      	movs	r3, #1
 8004536:	6163      	str	r3, [r4, #20]
 8004538:	b002      	add	sp, #8
 800453a:	bd70      	pop	{r4, r5, r6, pc}
 800453c:	466a      	mov	r2, sp
 800453e:	ab01      	add	r3, sp, #4
 8004540:	f7ff ffc8 	bl	80044d4 <__swhatbuf_r>
 8004544:	9900      	ldr	r1, [sp, #0]
 8004546:	4605      	mov	r5, r0
 8004548:	4630      	mov	r0, r6
 800454a:	f7fe fbdd 	bl	8002d08 <_malloc_r>
 800454e:	b948      	cbnz	r0, 8004564 <__smakebuf_r+0x44>
 8004550:	f9b4 300c 	ldrsh.w	r3, [r4, #12]
 8004554:	059a      	lsls	r2, r3, #22
 8004556:	d4ef      	bmi.n	8004538 <__smakebuf_r+0x18>
 8004558:	f023 0303 	bic.w	r3, r3, #3
 800455c:	f043 0302 	orr.w	r3, r3, #2
 8004560:	81a3      	strh	r3, [r4, #12]
 8004562:	e7e3      	b.n	800452c <__smakebuf_r+0xc>
 8004564:	4b0d      	ldr	r3, [pc, #52]	; (800459c <__smakebuf_r+0x7c>)
 8004566:	62b3      	str	r3, [r6, #40]	; 0x28
 8004568:	89a3      	ldrh	r3, [r4, #12]
 800456a:	6020      	str	r0, [r4, #0]
 800456c:	f043 0380 	orr.w	r3, r3, #128	; 0x80
 8004570:	81a3      	strh	r3, [r4, #12]
 8004572:	9b00      	ldr	r3, [sp, #0]
 8004574:	6120      	str	r0, [r4, #16]
 8004576:	6163      	str	r3, [r4, #20]
 8004578:	9b01      	ldr	r3, [sp, #4]
 800457a:	b15b      	cbz	r3, 8004594 <__smakebuf_r+0x74>
 800457c:	4630      	mov	r0, r6
 800457e:	f9b4 100e 	ldrsh.w	r1, [r4, #14]
 8004582:	f000 f8c7 	bl	8004714 <_isatty_r>
 8004586:	b128      	cbz	r0, 8004594 <__smakebuf_r+0x74>
 8004588:	89a3      	ldrh	r3, [r4, #12]
 800458a:	f023 0303 	bic.w	r3, r3, #3
 800458e:	f043 0301 	orr.w	r3, r3, #1
 8004592:	81a3      	strh	r3, [r4, #12]
 8004594:	89a0      	ldrh	r0, [r4, #12]
 8004596:	4305      	orrs	r5, r0
 8004598:	81a5      	strh	r5, [r4, #12]
 800459a:	e7cd      	b.n	8004538 <__smakebuf_r+0x18>
 800459c:	0800432d 	.word	0x0800432d

080045a0 <memchr>:
 80045a0:	4603      	mov	r3, r0
 80045a2:	b510      	push	{r4, lr}
 80045a4:	b2c9      	uxtb	r1, r1
 80045a6:	4402      	add	r2, r0
 80045a8:	4293      	cmp	r3, r2
 80045aa:	4618      	mov	r0, r3
 80045ac:	d101      	bne.n	80045b2 <memchr+0x12>
 80045ae:	2000      	movs	r0, #0
 80045b0:	e003      	b.n	80045ba <memchr+0x1a>
 80045b2:	7804      	ldrb	r4, [r0, #0]
 80045b4:	3301      	adds	r3, #1
 80045b6:	428c      	cmp	r4, r1
 80045b8:	d1f6      	bne.n	80045a8 <memchr+0x8>
 80045ba:	bd10      	pop	{r4, pc}

080045bc <memmove>:
 80045bc:	4288      	cmp	r0, r1
 80045be:	b510      	push	{r4, lr}
 80045c0:	eb01 0402 	add.w	r4, r1, r2
 80045c4:	d902      	bls.n	80045cc <memmove+0x10>
 80045c6:	4284      	cmp	r4, r0
 80045c8:	4623      	mov	r3, r4
 80045ca:	d807      	bhi.n	80045dc <memmove+0x20>
 80045cc:	1e43      	subs	r3, r0, #1
 80045ce:	42a1      	cmp	r1, r4
 80045d0:	d008      	beq.n	80045e4 <memmove+0x28>
 80045d2:	f811 2b01 	ldrb.w	r2, [r1], #1
 80045d6:	f803 2f01 	strb.w	r2, [r3, #1]!
 80045da:	e7f8      	b.n	80045ce <memmove+0x12>
 80045dc:	4601      	mov	r1, r0
 80045de:	4402      	add	r2, r0
 80045e0:	428a      	cmp	r2, r1
 80045e2:	d100      	bne.n	80045e6 <memmove+0x2a>
 80045e4:	bd10      	pop	{r4, pc}
 80045e6:	f813 4d01 	ldrb.w	r4, [r3, #-1]!
 80045ea:	f802 4d01 	strb.w	r4, [r2, #-1]!
 80045ee:	e7f7      	b.n	80045e0 <memmove+0x24>

080045f0 <__malloc_lock>:
 80045f0:	4801      	ldr	r0, [pc, #4]	; (80045f8 <__malloc_lock+0x8>)
 80045f2:	f7ff bf6d 	b.w	80044d0 <__retarget_lock_acquire_recursive>
 80045f6:	bf00      	nop
 80045f8:	20000464 	.word	0x20000464

080045fc <__malloc_unlock>:
 80045fc:	4801      	ldr	r0, [pc, #4]	; (8004604 <__malloc_unlock+0x8>)
 80045fe:	f7ff bf68 	b.w	80044d2 <__retarget_lock_release_recursive>
 8004602:	bf00      	nop
 8004604:	20000464 	.word	0x20000464

08004608 <_realloc_r>:
 8004608:	e92d 41f0 	stmdb	sp!, {r4, r5, r6, r7, r8, lr}
 800460c:	4680      	mov	r8, r0
 800460e:	4614      	mov	r4, r2
 8004610:	460e      	mov	r6, r1
 8004612:	b921      	cbnz	r1, 800461e <_realloc_r+0x16>
 8004614:	4611      	mov	r1, r2
 8004616:	e8bd 41f0 	ldmia.w	sp!, {r4, r5, r6, r7, r8, lr}
 800461a:	f7fe bb75 	b.w	8002d08 <_malloc_r>
 800461e:	b92a      	cbnz	r2, 800462c <_realloc_r+0x24>
 8004620:	f7fe fb0a 	bl	8002c38 <_free_r>
 8004624:	4625      	mov	r5, r4
 8004626:	4628      	mov	r0, r5
 8004628:	e8bd 81f0 	ldmia.w	sp!, {r4, r5, r6, r7, r8, pc}
 800462c:	f000 f882 	bl	8004734 <_malloc_usable_size_r>
 8004630:	4284      	cmp	r4, r0
 8004632:	4607      	mov	r7, r0
 8004634:	d802      	bhi.n	800463c <_realloc_r+0x34>
 8004636:	ebb4 0f50 	cmp.w	r4, r0, lsr #1
 800463a:	d812      	bhi.n	8004662 <_realloc_r+0x5a>
 800463c:	4621      	mov	r1, r4
 800463e:	4640      	mov	r0, r8
 8004640:	f7fe fb62 	bl	8002d08 <_malloc_r>
 8004644:	4605      	mov	r5, r0
 8004646:	2800      	cmp	r0, #0
 8004648:	d0ed      	beq.n	8004626 <_realloc_r+0x1e>
 800464a:	42bc      	cmp	r4, r7
 800464c:	4622      	mov	r2, r4
 800464e:	4631      	mov	r1, r6
 8004650:	bf28      	it	cs
 8004652:	463a      	movcs	r2, r7
 8004654:	f7fe f94c 	bl	80028f0 <memcpy>
 8004658:	4631      	mov	r1, r6
 800465a:	4640      	mov	r0, r8
 800465c:	f7fe faec 	bl	8002c38 <_free_r>
 8004660:	e7e1      	b.n	8004626 <_realloc_r+0x1e>
 8004662:	4635      	mov	r5, r6
 8004664:	e7df      	b.n	8004626 <_realloc_r+0x1e>

08004666 <_raise_r>:
 8004666:	291f      	cmp	r1, #31
 8004668:	b538      	push	{r3, r4, r5, lr}
 800466a:	4604      	mov	r4, r0
 800466c:	460d      	mov	r5, r1
 800466e:	d904      	bls.n	800467a <_raise_r+0x14>
 8004670:	2316      	movs	r3, #22
 8004672:	6003      	str	r3, [r0, #0]
 8004674:	f04f 30ff 	mov.w	r0, #4294967295
 8004678:	bd38      	pop	{r3, r4, r5, pc}
 800467a:	6c42      	ldr	r2, [r0, #68]	; 0x44
 800467c:	b112      	cbz	r2, 8004684 <_raise_r+0x1e>
 800467e:	f852 3021 	ldr.w	r3, [r2, r1, lsl #2]
 8004682:	b94b      	cbnz	r3, 8004698 <_raise_r+0x32>
 8004684:	4620      	mov	r0, r4
 8004686:	f000 f831 	bl	80046ec <_getpid_r>
 800468a:	462a      	mov	r2, r5
 800468c:	4601      	mov	r1, r0
 800468e:	4620      	mov	r0, r4
 8004690:	e8bd 4038 	ldmia.w	sp!, {r3, r4, r5, lr}
 8004694:	f000 b818 	b.w	80046c8 <_kill_r>
 8004698:	2b01      	cmp	r3, #1
 800469a:	d00a      	beq.n	80046b2 <_raise_r+0x4c>
 800469c:	1c59      	adds	r1, r3, #1
 800469e:	d103      	bne.n	80046a8 <_raise_r+0x42>
 80046a0:	2316      	movs	r3, #22
 80046a2:	6003      	str	r3, [r0, #0]
 80046a4:	2001      	movs	r0, #1
 80046a6:	e7e7      	b.n	8004678 <_raise_r+0x12>
 80046a8:	2400      	movs	r4, #0
 80046aa:	4628      	mov	r0, r5
 80046ac:	f842 4025 	str.w	r4, [r2, r5, lsl #2]
 80046b0:	4798      	blx	r3
 80046b2:	2000      	movs	r0, #0
 80046b4:	e7e0      	b.n	8004678 <_raise_r+0x12>
	...

080046b8 <raise>:
 80046b8:	4b02      	ldr	r3, [pc, #8]	; (80046c4 <raise+0xc>)
 80046ba:	4601      	mov	r1, r0
 80046bc:	6818      	ldr	r0, [r3, #0]
 80046be:	f7ff bfd2 	b.w	8004666 <_raise_r>
 80046c2:	bf00      	nop
 80046c4:	200000b0 	.word	0x200000b0

080046c8 <_kill_r>:
 80046c8:	b538      	push	{r3, r4, r5, lr}
 80046ca:	2300      	movs	r3, #0
 80046cc:	4d06      	ldr	r5, [pc, #24]	; (80046e8 <_kill_r+0x20>)
 80046ce:	4604      	mov	r4, r0
 80046d0:	4608      	mov	r0, r1
 80046d2:	4611      	mov	r1, r2
 80046d4:	602b      	str	r3, [r5, #0]
 80046d6:	f7fc fa83 	bl	8000be0 <_kill>
 80046da:	1c43      	adds	r3, r0, #1
 80046dc:	d102      	bne.n	80046e4 <_kill_r+0x1c>
 80046de:	682b      	ldr	r3, [r5, #0]
 80046e0:	b103      	cbz	r3, 80046e4 <_kill_r+0x1c>
 80046e2:	6023      	str	r3, [r4, #0]
 80046e4:	bd38      	pop	{r3, r4, r5, pc}
 80046e6:	bf00      	nop
 80046e8:	20000460 	.word	0x20000460

080046ec <_getpid_r>:
 80046ec:	f7fc ba76 	b.w	8000bdc <_getpid>

080046f0 <_fstat_r>:
 80046f0:	b538      	push	{r3, r4, r5, lr}
 80046f2:	2300      	movs	r3, #0
 80046f4:	4d06      	ldr	r5, [pc, #24]	; (8004710 <_fstat_r+0x20>)
 80046f6:	4604      	mov	r4, r0
 80046f8:	4608      	mov	r0, r1
 80046fa:	4611      	mov	r1, r2
 80046fc:	602b      	str	r3, [r5, #0]
 80046fe:	f7fc fa9c 	bl	8000c3a <_fstat>
 8004702:	1c43      	adds	r3, r0, #1
 8004704:	d102      	bne.n	800470c <_fstat_r+0x1c>
 8004706:	682b      	ldr	r3, [r5, #0]
 8004708:	b103      	cbz	r3, 800470c <_fstat_r+0x1c>
 800470a:	6023      	str	r3, [r4, #0]
 800470c:	bd38      	pop	{r3, r4, r5, pc}
 800470e:	bf00      	nop
 8004710:	20000460 	.word	0x20000460

08004714 <_isatty_r>:
 8004714:	b538      	push	{r3, r4, r5, lr}
 8004716:	2300      	movs	r3, #0
 8004718:	4d05      	ldr	r5, [pc, #20]	; (8004730 <_isatty_r+0x1c>)
 800471a:	4604      	mov	r4, r0
 800471c:	4608      	mov	r0, r1
 800471e:	602b      	str	r3, [r5, #0]
 8004720:	f7fc fa90 	bl	8000c44 <_isatty>
 8004724:	1c43      	adds	r3, r0, #1
 8004726:	d102      	bne.n	800472e <_isatty_r+0x1a>
 8004728:	682b      	ldr	r3, [r5, #0]
 800472a:	b103      	cbz	r3, 800472e <_isatty_r+0x1a>
 800472c:	6023      	str	r3, [r4, #0]
 800472e:	bd38      	pop	{r3, r4, r5, pc}
 8004730:	20000460 	.word	0x20000460

08004734 <_malloc_usable_size_r>:
 8004734:	f851 3c04 	ldr.w	r3, [r1, #-4]
 8004738:	1f18      	subs	r0, r3, #4
 800473a:	2b00      	cmp	r3, #0
 800473c:	bfbc      	itt	lt
 800473e:	580b      	ldrlt	r3, [r1, r0]
 8004740:	18c0      	addlt	r0, r0, r3
 8004742:	4770      	bx	lr

08004744 <_init>:
 8004744:	b5f8      	push	{r3, r4, r5, r6, r7, lr}
 8004746:	bf00      	nop
 8004748:	bcf8      	pop	{r3, r4, r5, r6, r7}
 800474a:	bc08      	pop	{r3}
 800474c:	469e      	mov	lr, r3
 800474e:	4770      	bx	lr

08004750 <_fini>:
 8004750:	b5f8      	push	{r3, r4, r5, r6, r7, lr}
 8004752:	bf00      	nop
 8004754:	bcf8      	pop	{r3, r4, r5, r6, r7}
 8004756:	bc08      	pop	{r3}
 8004758:	469e      	mov	lr, r3
 800475a:	4770      	bx	lr
